---
triple:          'arm64-apple-darwin'
binary-path:     closestPair
relocations:
  - { offsetInCU: 0x3B, offset: 0x3B, size: 0x8, addend: 0x0, symName: _.str, symObjAddr: 0x50420, symBinAddr: 0x100047D20, symSize: 0x0 }
  - { offsetInCU: 0x6B, offset: 0x6B, size: 0x8, addend: 0x0, symName: _.str.1, symObjAddr: 0x50440, symBinAddr: 0x100047D40, symSize: 0x0 }
  - { offsetInCU: 0x88, offset: 0x88, size: 0x8, addend: 0x0, symName: _.str.2, symObjAddr: 0x504A0, symBinAddr: 0x100047DA0, symSize: 0x0 }
  - { offsetInCU: 0xA6, offset: 0xA6, size: 0x8, addend: 0x0, symName: _.str.17, symObjAddr: 0x50500, symBinAddr: 0x100047E00, symSize: 0x0 }
  - { offsetInCU: 0x86EB, offset: 0x86EB, size: 0x8, addend: 0x0, symName: __ZNSt3__124__put_character_sequenceB7v160006IcNS_11char_traitsIcEEEERNS_13basic_ostreamIT_T0_EES7_PKS4_m, symObjAddr: 0x2CE00, symBinAddr: 0x10002F514, symSize: 0x103C }
  - { offsetInCU: 0xB939, offset: 0xB939, size: 0x8, addend: 0x0, symName: __ZNSt3__14endlB7v160006IcNS_11char_traitsIcEEEERNS_13basic_ostreamIT_T0_EES7_, symObjAddr: 0x20D8, symBinAddr: 0x1000047EC, symSize: 0x3D8 }
  - { offsetInCU: 0xB979, offset: 0xB979, size: 0x8, addend: 0x0, symName: __ZNSt3__1neB7v160006IP5pointEEbRKNS_11__wrap_iterIT_EES7_, symObjAddr: 0x34D8, symBinAddr: 0x100005BEC, symSize: 0xC4 }
  - { offsetInCU: 0xB9BC, offset: 0xB9BC, size: 0x8, addend: 0x0, symName: __ZNSt3__1lsB7v160006INS_11char_traitsIcEEEERNS_13basic_ostreamIcT_EES6_PKc, symObjAddr: 0x3690, symBinAddr: 0x100005DA4, symSize: 0xD0 }
  - { offsetInCU: 0xBA0D, offset: 0xBA0D, size: 0x8, addend: 0x0, symName: __ZNSt3__1rsB7v160006IcNS_11char_traitsIcEENS_9allocatorIcEEEERNS_13basic_istreamIT_T0_EES9_RNS_12basic_stringIS6_S7_T1_EE, symObjAddr: 0x5E28, symBinAddr: 0x10000853C, symSize: 0x1888 }
  - { offsetInCU: 0xBAE6, offset: 0xBAE6, size: 0x8, addend: 0x0, symName: __ZNSt3__1lsB7v160006IcNS_11char_traitsIcEEEERNS_13basic_ostreamIT_T0_EES7_RKNS_8__iom_t5E, symObjAddr: 0x76B0, symBinAddr: 0x100009DC4, symSize: 0x31C }
  - { offsetInCU: 0xBB32, offset: 0xBB32, size: 0x8, addend: 0x0, symName: __ZNSt3__112setprecisionB7v160006Ei, symObjAddr: 0x79CC, symBinAddr: 0x10000A0E0, symSize: 0x220 }
  - { offsetInCU: 0xBB5F, offset: 0xBB5F, size: 0x8, addend: 0x0, symName: __ZNSt3__1eqB7v160006IP5pointEEbRKNS_11__wrap_iterIT_EES7_, symObjAddr: 0x7BEC, symBinAddr: 0x10000A300, symSize: 0x9C }
  - { offsetInCU: 0xBBA2, offset: 0xBBA2, size: 0x8, addend: 0x0, symName: __ZNSt3__119__debug_db_insert_cB7v160006INS_12basic_stringIcNS_11char_traitsIcEENS_9allocatorIcEEEEEEvPT_, symObjAddr: 0x8450, symBinAddr: 0x10000AB64, symSize: 0x10 }
  - { offsetInCU: 0xBBD3, offset: 0xBBD3, size: 0x8, addend: 0x0, symName: __ZNSt3__19use_facetB7v160006INS_5ctypeIcEEEERKT_RKNS_6localeE, symObjAddr: 0x9888, symBinAddr: 0x10000BF9C, symSize: 0x188 }
  - { offsetInCU: 0xBFB3, offset: 0xBFB3, size: 0x8, addend: 0x0, symName: __ZNSt3__119__debug_db_insert_cB7v160006INS_6vectorINS1_INS1_I5pointNS_9allocatorIS2_EEEENS3_IS5_EEEENS3_IS7_EEEEEEvPT_, symObjAddr: 0x9F70, symBinAddr: 0x10000C684, symSize: 0x10 }
  - { offsetInCU: 0xBFE4, offset: 0xBFE4, size: 0x8, addend: 0x0, symName: __ZNSt3__118__debug_db_erase_cB7v160006INS_6vectorINS1_INS1_I5pointNS_9allocatorIS2_EEEENS3_IS5_EEEENS3_IS7_EEEEEEvPT_, symObjAddr: 0xAEF8, symBinAddr: 0x10000D60C, symSize: 0x10 }
  - { offsetInCU: 0xC015, offset: 0xC015, size: 0x8, addend: 0x0, symName: __ZNSt3__112__to_addressB7v160006INS_6vectorINS1_I5pointNS_9allocatorIS2_EEEENS3_IS5_EEEEEEPT_S9_, symObjAddr: 0xB360, symBinAddr: 0x10000DA74, symSize: 0x14 }
  - { offsetInCU: 0xC04A, offset: 0xC04A, size: 0x8, addend: 0x0, symName: __ZNSt3__118__debug_db_erase_cB7v160006INS_6vectorINS1_I5pointNS_9allocatorIS2_EEEENS3_IS5_EEEEEEvPT_, symObjAddr: 0xC2D0, symBinAddr: 0x10000E9E4, symSize: 0x10 }
  - { offsetInCU: 0xC07B, offset: 0xC07B, size: 0x8, addend: 0x0, symName: __ZNSt3__112__to_addressB7v160006INS_6vectorI5pointNS_9allocatorIS2_EEEEEEPT_S7_, symObjAddr: 0xC830, symBinAddr: 0x10000EF44, symSize: 0x14 }
  - { offsetInCU: 0xC0B0, offset: 0xC0B0, size: 0x8, addend: 0x0, symName: __ZNSt3__119__libcpp_deallocateB7v160006EPvmm, symObjAddr: 0xCB84, symBinAddr: 0x10000F298, symSize: 0x30 }
  - { offsetInCU: 0xC0F8, offset: 0xC0F8, size: 0x8, addend: 0x0, symName: __ZNSt3__127__do_deallocate_handle_sizeB7v160006IJEEEvPvmDpT_, symObjAddr: 0xCBB4, symBinAddr: 0x10000F2C8, symSize: 0x28 }
  - { offsetInCU: 0xC136, offset: 0xC136, size: 0x8, addend: 0x0, symName: __ZNSt3__124__libcpp_operator_deleteB7v160006IJPvEEEvDpT_, symObjAddr: 0xCBDC, symBinAddr: 0x10000F2F0, symSize: 0x24 }
  - { offsetInCU: 0xC16B, offset: 0xC16B, size: 0x8, addend: 0x0, symName: __ZNSt3__119__debug_db_insert_cB7v160006INS_6vectorI5pointNS_9allocatorIS2_EEEEEEvPT_, symObjAddr: 0xD8E8, symBinAddr: 0x10000FFFC, symSize: 0x10 }
  - { offsetInCU: 0xC19C, offset: 0xC19C, size: 0x8, addend: 0x0, symName: __ZNSt3__118__debug_db_erase_cB7v160006INS_6vectorI5pointNS_9allocatorIS2_EEEEEEvPT_, symObjAddr: 0xE858, symBinAddr: 0x100010F6C, symSize: 0x10 }
  - { offsetInCU: 0xC1CD, offset: 0xC1CD, size: 0x8, addend: 0x0, symName: __ZNSt3__112__to_addressB7v160006I5pointEEPT_S3_, symObjAddr: 0xECC0, symBinAddr: 0x1000113D4, symSize: 0x14 }
  - { offsetInCU: 0xC202, offset: 0xC202, size: 0x8, addend: 0x0, symName: __ZNSt3__13maxB7v160006ImEERKT_S3_S3_, symObjAddr: 0x12690, symBinAddr: 0x100014DA4, symSize: 0x104 }
  - { offsetInCU: 0xC245, offset: 0xC245, size: 0x8, addend: 0x0, symName: __ZNSt3__13minB7v160006ImEERKT_S3_S3_, symObjAddr: 0x12794, symBinAddr: 0x100014EA8, symSize: 0x104 }
  - { offsetInCU: 0xC489, offset: 0xC489, size: 0x8, addend: 0x0, symName: __ZNSt3__13minB7v160006ImNS_6__lessImmEEEERKT_S5_S5_T0_, symObjAddr: 0x129B4, symBinAddr: 0x1000150C8, symSize: 0x2C0 }
  - { offsetInCU: 0xC524, offset: 0xC524, size: 0x8, addend: 0x0, symName: __ZNSt3__120__throw_length_errorB7v160006EPKc, symObjAddr: 0x12F30, symBinAddr: 0x100015644, symSize: 0xB4 }
  - { offsetInCU: 0xC54C, offset: 0xC54C, size: 0x8, addend: 0x0, symName: __ZNSt3__13maxB7v160006ImNS_6__lessImmEEEERKT_S5_S5_T0_, symObjAddr: 0x1318C, symBinAddr: 0x1000158A0, symSize: 0x2C0 }
  - { offsetInCU: 0xC5AC, offset: 0xC5AC, size: 0x8, addend: 0x0, symName: __ZNSt3__119__allocate_at_leastB7v160006INS_9allocatorI5pointEEEENS_19__allocation_resultINS_16allocator_traitsIT_E7pointerEEERS6_m, symObjAddr: 0x13CAC, symBinAddr: 0x1000163C0, symSize: 0x28C }
  - { offsetInCU: 0xC5F1, offset: 0xC5F1, size: 0x8, addend: 0x0, symName: __ZNSt3__117__libcpp_allocateB7v160006Emm, symObjAddr: 0x144E8, symBinAddr: 0x100016BFC, symSize: 0x28 }
  - { offsetInCU: 0xC62E, offset: 0xC62E, size: 0x8, addend: 0x0, symName: __ZNSt3__121__libcpp_operator_newB7v160006IJmEEEPvDpT_, symObjAddr: 0x14510, symBinAddr: 0x100016C24, symSize: 0x24 }
  - { offsetInCU: 0xC667, offset: 0xC667, size: 0x8, addend: 0x0, symName: __ZNSt3__142__uninitialized_allocator_move_if_noexceptB7v160006INS_9allocatorI5pointEENS_16reverse_iteratorIPS2_EES6_S2_vEET1_RT_T0_SA_S7_, symObjAddr: 0x14840, symBinAddr: 0x100016F54, symSize: 0x4A8 }
  - { offsetInCU: 0xC6F1, offset: 0xC6F1, size: 0x8, addend: 0x0, symName: __ZNSt3__14swapB7v160006IP5pointEENS_9enable_ifIXaasr21is_move_constructibleIT_EE5valuesr18is_move_assignableIS4_EE5valueEvE4typeERS4_S7_, symObjAddr: 0x14E18, symBinAddr: 0x10001752C, symSize: 0x1C0 }
  - { offsetInCU: 0xC742, offset: 0xC742, size: 0x8, addend: 0x0, symName: __ZNSt3__125__debug_db_invalidate_allB7v160006INS_6vectorI5pointNS_9allocatorIS2_EEEEEEvPT_, symObjAddr: 0x15338, symBinAddr: 0x100017A4C, symSize: 0x10 }
  - { offsetInCU: 0xC773, offset: 0xC773, size: 0x8, addend: 0x0, symName: __ZNSt3__14moveB7v160006INS_16reverse_iteratorIP5pointEES4_EET0_T_S6_S5_, symObjAddr: 0x15348, symBinAddr: 0x100017A5C, symSize: 0x4B0 }
  - { offsetInCU: 0xC7DA, offset: 0xC7DA, size: 0x8, addend: 0x0, symName: __ZNSt3__16__moveB7v160006INS_17_ClassicAlgPolicyENS_16reverse_iteratorIP5pointEES5_S5_EENS_4pairIT0_T2_EES7_T1_S8_, symObjAddr: 0x157F8, symBinAddr: 0x100017F0C, symSize: 0x424 }
  - { offsetInCU: 0xC852, offset: 0xC852, size: 0x8, addend: 0x0, symName: __ZNSt3__123__dispatch_copy_or_moveB7v160006INS_17_ClassicAlgPolicyENS_11__move_loopIS1_EENS_14__move_trivialENS_16reverse_iteratorIP5pointEES8_S8_EENS_4pairIT2_T4_EESA_T3_SB_, symObjAddr: 0x15C1C, symBinAddr: 0x100018330, symSize: 0x424 }
  - { offsetInCU: 0xC8DC, offset: 0xC8DC, size: 0x8, addend: 0x0, symName: __ZNSt3__121__unwrap_and_dispatchB7v160006INS_10__overloadINS_11__move_loopINS_17_ClassicAlgPolicyEEENS_14__move_trivialEEENS_16reverse_iteratorIP5pointEESA_SA_Li0EEENS_4pairIT0_T2_EESC_T1_SD_, symObjAddr: 0x16040, symBinAddr: 0x100018754, symSize: 0x880 }
  - { offsetInCU: 0xC980, offset: 0xC980, size: 0x8, addend: 0x0, symName: __ZNSt3__114__unwrap_rangeB7v160006INS_16reverse_iteratorIP5pointEES4_EENS_4pairIT0_S6_EET_S8_, symObjAddr: 0x168C0, symBinAddr: 0x100018FD4, symSize: 0x448 }
  - { offsetInCU: 0xCB03, offset: 0xCB03, size: 0x8, addend: 0x0, symName: __ZNSt3__113__unwrap_iterB7v160006INS_16reverse_iteratorIP5pointEENS_18__unwrap_iter_implIS4_Lb0EEELi0EEEDTclsrT0_8__unwrapclsr3stdE7declvalIT_EEEES8_, symObjAddr: 0x17078, symBinAddr: 0x10001978C, symSize: 0x2EC }
  - { offsetInCU: 0xCB4B, offset: 0xCB4B, size: 0x8, addend: 0x0, symName: __ZNSt3__19make_pairB7v160006INS_16reverse_iteratorIP5pointEES4_EENS_4pairINS_18__unwrap_ref_decayIT_E4typeENS6_IT0_E4typeEEEOS7_OSA_, symObjAddr: 0x17364, symBinAddr: 0x100019A78, symSize: 0x108 }
  - { offsetInCU: 0xCB9A, offset: 0xCB9A, size: 0x8, addend: 0x0, symName: __ZNSt3__114__rewrap_rangeB7v160006INS_16reverse_iteratorIP5pointEES4_EET_S5_T0_, symObjAddr: 0x1746C, symBinAddr: 0x100019B80, symSize: 0x3D4 }
  - { offsetInCU: 0xCBEE, offset: 0xCBEE, size: 0x8, addend: 0x0, symName: __ZNSt3__113__rewrap_iterB7v160006INS_16reverse_iteratorIP5pointEES4_NS_18__unwrap_iter_implIS4_Lb0EEEEET_S7_T0_, symObjAddr: 0x17840, symBinAddr: 0x100019F54, symSize: 0x3E8 }
  - { offsetInCU: 0xCC4B, offset: 0xCC4B, size: 0x8, addend: 0x0, symName: __ZNSt3__1neB7v160006IP5pointS2_EEbRKNS_16reverse_iteratorIT_EERKNS3_IT0_EE, symObjAddr: 0x17C28, symBinAddr: 0x10001A33C, symSize: 0x9C }
  - { offsetInCU: 0xCD49, offset: 0xCD49, size: 0x8, addend: 0x0, symName: __ZNSt3__119__debug_db_insert_cB7v160006INS_6vectorINS1_I5pointNS_9allocatorIS2_EEEENS3_IS5_EEEEEEvPT_, symObjAddr: 0x1BFC0, symBinAddr: 0x10001E6D4, symSize: 0x10 }
  - { offsetInCU: 0xCD7A, offset: 0xCD7A, size: 0x8, addend: 0x0, symName: __ZNSt3__119__allocate_at_leastB7v160006INS_9allocatorINS_6vectorINS2_I5pointNS1_IS3_EEEENS1_IS5_EEEEEEEENS_19__allocation_resultINS_16allocator_traitsIT_E7pointerEEERSB_m, symObjAddr: 0x1D9AC, symBinAddr: 0x1000200C0, symSize: 0x28C }
  - { offsetInCU: 0xCDBF, offset: 0xCDBF, size: 0x8, addend: 0x0, symName: __ZNSt3__142__uninitialized_allocator_move_if_noexceptB7v160006INS_9allocatorINS_6vectorINS2_I5pointNS1_IS3_EEEENS1_IS5_EEEEEENS_16reverse_iteratorIPS7_EESB_SB_EET2_RT_T0_T1_SC_, symObjAddr: 0x1EA1C, symBinAddr: 0x100021130, symSize: 0x5D8 }
  - { offsetInCU: 0xCE74, offset: 0xCE74, size: 0x8, addend: 0x0, symName: __ZNSt3__14swapB7v160006IPNS_6vectorINS1_I5pointNS_9allocatorIS2_EEEENS3_IS5_EEEEEENS_9enable_ifIXaasr21is_move_constructibleIT_EE5valuesr18is_move_assignableISA_EE5valueEvE4typeERSA_SD_, symObjAddr: 0x1F124, symBinAddr: 0x100021838, symSize: 0x1C0 }
  - { offsetInCU: 0xCEC5, offset: 0xCEC5, size: 0x8, addend: 0x0, symName: __ZNSt3__125__debug_db_invalidate_allB7v160006INS_6vectorINS1_INS1_I5pointNS_9allocatorIS2_EEEENS3_IS5_EEEENS3_IS7_EEEEEEvPT_, symObjAddr: 0x1F65C, symBinAddr: 0x100021D70, symSize: 0x10 }
  - { offsetInCU: 0xCEF6, offset: 0xCEF6, size: 0x8, addend: 0x0, symName: __ZNSt3__122__make_exception_guardB7v160006INS_29_AllocatorDestroyRangeReverseINS_9allocatorINS_6vectorINS3_I5pointNS2_IS4_EEEENS2_IS6_EEEEEENS_16reverse_iteratorIPS8_EEEEEENS_28__exception_guard_exceptionsIT_EESF_, symObjAddr: 0x1F66C, symBinAddr: 0x100021D80, symSize: 0x23C }
  - { offsetInCU: 0xCF2D, offset: 0xCF2D, size: 0x8, addend: 0x0, symName: __ZNSt3__1neB7v160006IPNS_6vectorINS1_I5pointNS_9allocatorIS2_EEEENS3_IS5_EEEES8_EEbRKNS_16reverse_iteratorIT_EERKNS9_IT0_EE, symObjAddr: 0x1F938, symBinAddr: 0x10002204C, symSize: 0x9C }
  - { offsetInCU: 0xCF79, offset: 0xCF79, size: 0x8, addend: 0x0, symName: __ZNSt3__112__to_addressB7v160006INS_16reverse_iteratorIPNS_6vectorINS2_I5pointNS_9allocatorIS3_EEEENS4_IS6_EEEEEEvEENS_5decayIDTclsr19__to_address_helperIT_EE6__callclsr3stdE7declvalIRKSC_EEEEE4typeESE_, symObjAddr: 0x1FA60, symBinAddr: 0x100022174, symSize: 0x6C }
  - { offsetInCU: 0xCFAF, offset: 0xCFAF, size: 0x8, addend: 0x0, symName: __ZNSt3__115__debug_db_swapB7v160006INS_6vectorINS1_I5pointNS_9allocatorIS2_EEEENS3_IS5_EEEEEEvPT_S9_, symObjAddr: 0x20C60, symBinAddr: 0x100023374, symSize: 0x14 }
  - { offsetInCU: 0xD017, offset: 0xD017, size: 0x8, addend: 0x0, symName: __ZNSt3__119__allocator_destroyB7v160006INS_9allocatorINS_6vectorINS2_I5pointNS1_IS3_EEEENS1_IS5_EEEEEENS_16reverse_iteratorINS9_IPS7_EEEESC_EEvRT_T0_T1_, symObjAddr: 0x2177C, symBinAddr: 0x100023E90, symSize: 0x1A4 }
  - { offsetInCU: 0xD07C, offset: 0xD07C, size: 0x8, addend: 0x0, symName: __ZNSt3__1neB7v160006INS_16reverse_iteratorIPNS_6vectorINS2_I5pointNS_9allocatorIS3_EEEENS4_IS6_EEEEEESA_EEbRKNS1_IT_EERKNS1_IT0_EE, symObjAddr: 0x21BBC, symBinAddr: 0x1000242D0, symSize: 0x324 }
  - { offsetInCU: 0xD0CA, offset: 0xD0CA, size: 0x8, addend: 0x0, symName: __ZNSt3__112__to_addressB7v160006INS_16reverse_iteratorINS1_IPNS_6vectorINS2_I5pointNS_9allocatorIS3_EEEENS4_IS6_EEEEEEEEvEENS_5decayIDTclsr19__to_address_helperIT_EE6__callclsr3stdE7declvalIRKSD_EEEEE4typeESF_, symObjAddr: 0x21EE0, symBinAddr: 0x1000245F4, symSize: 0x6C }
  - { offsetInCU: 0xD129, offset: 0xD129, size: 0x8, addend: 0x0, symName: __ZNSt3__119__allocate_at_leastB7v160006INS_9allocatorINS_6vectorI5pointNS1_IS3_EEEEEEEENS_19__allocation_resultINS_16allocator_traitsIT_E7pointerEEERS9_m, symObjAddr: 0x272D4, symBinAddr: 0x1000299E8, symSize: 0x28C }
  - { offsetInCU: 0xD16E, offset: 0xD16E, size: 0x8, addend: 0x0, symName: __ZNSt3__142__uninitialized_allocator_move_if_noexceptB7v160006INS_9allocatorINS_6vectorI5pointNS1_IS3_EEEEEENS_16reverse_iteratorIPS5_EES9_S9_EET2_RT_T0_T1_SA_, symObjAddr: 0x28344, symBinAddr: 0x10002AA58, symSize: 0x5D8 }
  - { offsetInCU: 0xD223, offset: 0xD223, size: 0x8, addend: 0x0, symName: __ZNSt3__14swapB7v160006IPNS_6vectorI5pointNS_9allocatorIS2_EEEEEENS_9enable_ifIXaasr21is_move_constructibleIT_EE5valuesr18is_move_assignableIS8_EE5valueEvE4typeERS8_SB_, symObjAddr: 0x28A4C, symBinAddr: 0x10002B160, symSize: 0x1C0 }
  - { offsetInCU: 0xD274, offset: 0xD274, size: 0x8, addend: 0x0, symName: __ZNSt3__125__debug_db_invalidate_allB7v160006INS_6vectorINS1_I5pointNS_9allocatorIS2_EEEENS3_IS5_EEEEEEvPT_, symObjAddr: 0x28F84, symBinAddr: 0x10002B698, symSize: 0x10 }
  - { offsetInCU: 0xD2A5, offset: 0xD2A5, size: 0x8, addend: 0x0, symName: __ZNSt3__122__make_exception_guardB7v160006INS_29_AllocatorDestroyRangeReverseINS_9allocatorINS_6vectorI5pointNS2_IS4_EEEEEENS_16reverse_iteratorIPS6_EEEEEENS_28__exception_guard_exceptionsIT_EESD_, symObjAddr: 0x28F94, symBinAddr: 0x10002B6A8, symSize: 0x23C }
  - { offsetInCU: 0xD2DC, offset: 0xD2DC, size: 0x8, addend: 0x0, symName: __ZNSt3__1neB7v160006IPNS_6vectorI5pointNS_9allocatorIS2_EEEES6_EEbRKNS_16reverse_iteratorIT_EERKNS7_IT0_EE, symObjAddr: 0x29260, symBinAddr: 0x10002B974, symSize: 0x9C }
  - { offsetInCU: 0xD328, offset: 0xD328, size: 0x8, addend: 0x0, symName: __ZNSt3__112__to_addressB7v160006INS_16reverse_iteratorIPNS_6vectorI5pointNS_9allocatorIS3_EEEEEEvEENS_5decayIDTclsr19__to_address_helperIT_EE6__callclsr3stdE7declvalIRKSA_EEEEE4typeESC_, symObjAddr: 0x29388, symBinAddr: 0x10002BA9C, symSize: 0x6C }
  - { offsetInCU: 0xD35E, offset: 0xD35E, size: 0x8, addend: 0x0, symName: __ZNSt3__115__debug_db_swapB7v160006INS_6vectorI5pointNS_9allocatorIS2_EEEEEEvPT_S7_, symObjAddr: 0x2A588, symBinAddr: 0x10002CC9C, symSize: 0x14 }
  - { offsetInCU: 0xD3C6, offset: 0xD3C6, size: 0x8, addend: 0x0, symName: __ZNSt3__119__allocator_destroyB7v160006INS_9allocatorINS_6vectorI5pointNS1_IS3_EEEEEENS_16reverse_iteratorINS7_IPS5_EEEESA_EEvRT_T0_T1_, symObjAddr: 0x2ADD4, symBinAddr: 0x10002D4E8, symSize: 0x1A4 }
  - { offsetInCU: 0xD42B, offset: 0xD42B, size: 0x8, addend: 0x0, symName: __ZNSt3__1neB7v160006INS_16reverse_iteratorIPNS_6vectorI5pointNS_9allocatorIS3_EEEEEES8_EEbRKNS1_IT_EERKNS1_IT0_EE, symObjAddr: 0x2B214, symBinAddr: 0x10002D928, symSize: 0x324 }
  - { offsetInCU: 0xD479, offset: 0xD479, size: 0x8, addend: 0x0, symName: __ZNSt3__112__to_addressB7v160006INS_16reverse_iteratorINS1_IPNS_6vectorI5pointNS_9allocatorIS3_EEEEEEEEvEENS_5decayIDTclsr19__to_address_helperIT_EE6__callclsr3stdE7declvalIRKSB_EEEEE4typeESD_, symObjAddr: 0x2B538, symBinAddr: 0x10002DC4C, symSize: 0x6C }
  - { offsetInCU: 0xD4D8, offset: 0xD4D8, size: 0x8, addend: 0x0, symName: __ZNSt3__116__pad_and_outputB7v160006IcNS_11char_traitsIcEEEENS_19ostreambuf_iteratorIT_T0_EES6_PKS4_S8_S8_RNS_8ios_baseES4_, symObjAddr: 0x2DF80, symBinAddr: 0x100030694, symSize: 0xB88 }
  - { offsetInCU: 0xD5B5, offset: 0xD5B5, size: 0x8, addend: 0x0, symName: __ZNSt3__112__to_addressB7v160006IKcEEPT_S3_, symObjAddr: 0x2FA98, symBinAddr: 0x1000321AC, symSize: 0x14 }
  - { offsetInCU: 0xD61D, offset: 0xD61D, size: 0x8, addend: 0x0, symName: __ZNSt3__118__constexpr_strlenB7v160006EPKc, symObjAddr: 0x30A40, symBinAddr: 0x100033154, symSize: 0x24 }
  - { offsetInCU: 0xD649, offset: 0xD649, size: 0x8, addend: 0x0, symName: __ZNSt3__122__make_exception_guardB7v160006INS_6vectorINS1_INS1_I5pointNS_9allocatorIS2_EEEENS3_IS5_EEEENS3_IS7_EEE16__destroy_vectorEEENS_28__exception_guard_exceptionsIT_EESC_, symObjAddr: 0x311A0, symBinAddr: 0x1000338B4, symSize: 0x2BC }
  - { offsetInCU: 0xD682, offset: 0xD682, size: 0x8, addend: 0x0, symName: __ZNSt3__130__uninitialized_allocator_copyB7v160006INS_9allocatorINS_6vectorINS2_I5pointNS1_IS3_EEEENS1_IS5_EEEEEEPS7_S9_S9_EET2_RT_T0_T1_SA_, symObjAddr: 0x32740, symBinAddr: 0x100034E54, symSize: 0x6EC }
  - { offsetInCU: 0xD72E, offset: 0xD72E, size: 0x8, addend: 0x0, symName: __ZNSt3__122__make_exception_guardB7v160006INS_29_AllocatorDestroyRangeReverseINS_9allocatorINS_6vectorINS3_I5pointNS2_IS4_EEEENS2_IS6_EEEEEEPS8_EEEENS_28__exception_guard_exceptionsIT_EESD_, symObjAddr: 0x32E2C, symBinAddr: 0x100035540, symSize: 0x23C }
  - { offsetInCU: 0xD765, offset: 0xD765, size: 0x8, addend: 0x0, symName: __ZNSt3__122__make_exception_guardB7v160006INS_6vectorINS1_I5pointNS_9allocatorIS2_EEEENS3_IS5_EEE16__destroy_vectorEEENS_28__exception_guard_exceptionsIT_EESA_, symObjAddr: 0x33E7C, symBinAddr: 0x100036590, symSize: 0x2BC }
  - { offsetInCU: 0xD79E, offset: 0xD79E, size: 0x8, addend: 0x0, symName: __ZNSt3__130__uninitialized_allocator_copyB7v160006INS_9allocatorINS_6vectorI5pointNS1_IS3_EEEEEEPS5_S7_S7_EET2_RT_T0_T1_S8_, symObjAddr: 0x35254, symBinAddr: 0x100037968, symSize: 0x6EC }
  - { offsetInCU: 0xD84A, offset: 0xD84A, size: 0x8, addend: 0x0, symName: __ZNSt3__122__make_exception_guardB7v160006INS_29_AllocatorDestroyRangeReverseINS_9allocatorINS_6vectorI5pointNS2_IS4_EEEEEEPS6_EEEENS_28__exception_guard_exceptionsIT_EESB_, symObjAddr: 0x35940, symBinAddr: 0x100038054, symSize: 0x23C }
  - { offsetInCU: 0xD881, offset: 0xD881, size: 0x8, addend: 0x0, symName: __ZNSt3__122__make_exception_guardB7v160006INS_6vectorI5pointNS_9allocatorIS2_EEE16__destroy_vectorEEENS_28__exception_guard_exceptionsIT_EES8_, symObjAddr: 0x36990, symBinAddr: 0x1000390A4, symSize: 0x2BC }
  - { offsetInCU: 0xD8BA, offset: 0xD8BA, size: 0x8, addend: 0x0, symName: __ZNSt3__130__uninitialized_allocator_copyB7v160006INS_9allocatorI5pointEEPS2_S4_S4_EET2_RT_T0_T1_S5_, symObjAddr: 0x37D60, symBinAddr: 0x10003A474, symSize: 0x6EC }
  - { offsetInCU: 0xD966, offset: 0xD966, size: 0x8, addend: 0x0, symName: __ZNSt3__122__make_exception_guardB7v160006INS_29_AllocatorDestroyRangeReverseINS_9allocatorI5pointEEPS3_EEEENS_28__exception_guard_exceptionsIT_EES8_, symObjAddr: 0x3844C, symBinAddr: 0x10003AB60, symSize: 0x23C }
  - { offsetInCU: 0xD99D, offset: 0xD99D, size: 0x8, addend: 0x0, symName: __ZNSt3__119__allocator_destroyB7v160006INS_9allocatorI5pointEENS_16reverse_iteratorIPS2_EES6_EEvRT_T0_T1_, symObjAddr: 0x392AC, symBinAddr: 0x10003B9C0, symSize: 0x2DC }
  - { offsetInCU: 0xDA09, offset: 0xDA09, size: 0x8, addend: 0x0, symName: __ZNSt3__112__to_addressB7v160006INS_16reverse_iteratorIP5pointEEvEENS_5decayIDTclsr19__to_address_helperIT_EE6__callclsr3stdE7declvalIRKS6_EEEEE4typeES8_, symObjAddr: 0x39588, symBinAddr: 0x10003BC9C, symSize: 0x6C }
  - { offsetInCU: 0xDA68, offset: 0xDA68, size: 0x8, addend: 0x0, symName: __ZNSt3__119__allocator_destroyB7v160006INS_9allocatorINS_6vectorI5pointNS1_IS3_EEEEEENS_16reverse_iteratorIPS5_EES9_EEvRT_T0_T1_, symObjAddr: 0x39DD4, symBinAddr: 0x10003C4E8, symSize: 0x2DC }
  - { offsetInCU: 0xDAD4, offset: 0xDAD4, size: 0x8, addend: 0x0, symName: __ZNSt3__119__allocator_destroyB7v160006INS_9allocatorINS_6vectorINS2_I5pointNS1_IS3_EEEENS1_IS5_EEEEEENS_16reverse_iteratorIPS7_EESB_EEvRT_T0_T1_, symObjAddr: 0x3A7B4, symBinAddr: 0x10003CEC8, symSize: 0x2DC }
  - { offsetInCU: 0xDB40, offset: 0xDB40, size: 0x8, addend: 0x0, symName: __ZNSt3__125__debug_db_invalidate_allB7v160006INS_12basic_stringIcNS_11char_traitsIcEENS_9allocatorIcEEEEEEvPT_, symObjAddr: 0x3C2BC, symBinAddr: 0x10003E9D0, symSize: 0x10 }
  - { offsetInCU: 0xE263, offset: 0xE263, size: 0x8, addend: 0x0, symName: __ZSt28__throw_bad_array_new_lengthB7v160006v, symObjAddr: 0x1446C, symBinAddr: 0x100016B80, symSize: 0x7C }
  - { offsetInCU: 0xEA4D, offset: 0xEA4D, size: 0x8, addend: 0x0, symName: __ZNSt3__16vectorI5pointNS_9allocatorIS1_EEE26__swap_out_circular_bufferERNS_14__split_bufferIS1_RS3_EE, symObjAddr: 0x1197C, symBinAddr: 0x100014090, symSize: 0x864 }
  - { offsetInCU: 0xEAA4, offset: 0xEAA4, size: 0x8, addend: 0x0, symName: __ZNSt3__16vectorINS0_INS0_I5pointNS_9allocatorIS1_EEEENS2_IS4_EEEENS2_IS6_EEE26__swap_out_circular_bufferERNS_14__split_bufferIS6_RS7_EE, symObjAddr: 0x1A6B4, symBinAddr: 0x10001CDC8, symSize: 0x864 }
  - { offsetInCU: 0xEB37, offset: 0xEB37, size: 0x8, addend: 0x0, symName: __ZNSt3__16vectorINS0_I5pointNS_9allocatorIS1_EEEENS2_IS4_EEE26__swap_out_circular_bufferERNS_14__split_bufferIS4_RS5_EE, symObjAddr: 0x24960, symBinAddr: 0x100027074, symSize: 0x864 }
  - { offsetInCU: 0xED7D, offset: 0xED7D, size: 0x8, addend: 0x0, symName: __Z3powB7v160006IdiENSt3__19enable_ifIXaasr3std13is_arithmeticIT_EE5valuesr3std13is_arithmeticIT0_EE5valueENS0_9__promoteIS2_S3_vEEE4type4typeES2_S3_, symObjAddr: 0x5710, symBinAddr: 0x100007E24, symSize: 0x38 }
  - { offsetInCU: 0x10FD1, offset: 0x10FD1, size: 0x8, addend: 0x0, symName: __Z11closestPairNSt3__112basic_stringIcNS_11char_traitsIcEENS_9allocatorIcEEEE, symObjAddr: 0x0, symBinAddr: 0x100002714, symSize: 0x1C68 }
  - { offsetInCU: 0x11283, offset: 0x11283, size: 0x8, addend: 0x0, symName: __ZNSt3__114basic_ifstreamIcNS_11char_traitsIcEEEC1Ev, symObjAddr: 0x1C68, symBinAddr: 0x10000437C, symSize: 0x368 }
  - { offsetInCU: 0x112AE, offset: 0x112AE, size: 0x8, addend: 0x0, symName: __ZNSt3__113basic_ostreamIcNS_11char_traitsIcEEElsB7v160006EPFRS3_S4_E, symObjAddr: 0x1FD0, symBinAddr: 0x1000046E4, symSize: 0x108 }
  - { offsetInCU: 0x112E1, offset: 0x112E1, size: 0x8, addend: 0x0, symName: __ZNSt3__16vectorINS0_INS0_I5pointNS_9allocatorIS1_EEEENS2_IS4_EEEENS2_IS6_EEEC1B7v160006Ev, symObjAddr: 0x24B0, symBinAddr: 0x100004BC4, symSize: 0x78 }
  - { offsetInCU: 0x1130A, offset: 0x1130A, size: 0x8, addend: 0x0, symName: __ZNSt3__16vectorI5pointNS_9allocatorIS1_EEEC1B7v160006Ev, symObjAddr: 0x2528, symBinAddr: 0x100004C3C, symSize: 0x78 }
  - { offsetInCU: 0x11333, offset: 0x11333, size: 0x8, addend: 0x0, symName: __ZNKSt3__19basic_iosIcNS_11char_traitsIcEEE3eofB7v160006Ev, symObjAddr: 0x25A0, symBinAddr: 0x100004CB4, symSize: 0x124 }
  - { offsetInCU: 0x11357, offset: 0x11357, size: 0x8, addend: 0x0, symName: __ZNSt3__16vectorI5pointNS_9allocatorIS1_EEE9push_backB7v160006ERKS1_, symObjAddr: 0x26C4, symBinAddr: 0x100004DD8, symSize: 0x1FC }
  - { offsetInCU: 0x1138C, offset: 0x1138C, size: 0x8, addend: 0x0, symName: __ZNSt3__16vectorINS0_INS0_I5pointNS_9allocatorIS1_EEEENS2_IS4_EEEENS2_IS6_EEE6resizeEm, symObjAddr: 0x28C0, symBinAddr: 0x100004FD4, symSize: 0x1F4 }
  - { offsetInCU: 0x113D1, offset: 0x113D1, size: 0x8, addend: 0x0, symName: __ZNKSt3__16vectorINS0_INS0_I5pointNS_9allocatorIS1_EEEENS2_IS4_EEEENS2_IS6_EEE4sizeB7v160006Ev, symObjAddr: 0x2AB4, symBinAddr: 0x1000051C8, symSize: 0xF8 }
  - { offsetInCU: 0x113F5, offset: 0x113F5, size: 0x8, addend: 0x0, symName: __ZNSt3__16vectorINS0_INS0_I5pointNS_9allocatorIS1_EEEENS2_IS4_EEEENS2_IS6_EEEixB7v160006Em, symObjAddr: 0x2BAC, symBinAddr: 0x1000052C0, symSize: 0x1D4 }
  - { offsetInCU: 0x1142A, offset: 0x1142A, size: 0x8, addend: 0x0, symName: __ZNSt3__16vectorINS0_I5pointNS_9allocatorIS1_EEEENS2_IS4_EEE6resizeEm, symObjAddr: 0x2D80, symBinAddr: 0x100005494, symSize: 0x1F4 }
  - { offsetInCU: 0x1146E, offset: 0x1146E, size: 0x8, addend: 0x0, symName: __ZNSt3__16vectorI5pointNS_9allocatorIS1_EEE5beginB7v160006Ev, symObjAddr: 0x2F74, symBinAddr: 0x100005688, symSize: 0x2B0 }
  - { offsetInCU: 0x11495, offset: 0x11495, size: 0x8, addend: 0x0, symName: __ZNSt3__16vectorI5pointNS_9allocatorIS1_EEE3endB7v160006Ev, symObjAddr: 0x3224, symBinAddr: 0x100005938, symSize: 0x2B4 }
  - { offsetInCU: 0x114BD, offset: 0x114BD, size: 0x8, addend: 0x0, symName: __ZNKSt3__111__wrap_iterIP5pointEdeB7v160006Ev, symObjAddr: 0x359C, symBinAddr: 0x100005CB0, symSize: 0xF4 }
  - { offsetInCU: 0x114E1, offset: 0x114E1, size: 0x8, addend: 0x0, symName: __ZNSt3__16vectorINS0_I5pointNS_9allocatorIS1_EEEENS2_IS4_EEEixB7v160006Em, symObjAddr: 0x3760, symBinAddr: 0x100005E74, symSize: 0x1D4 }
  - { offsetInCU: 0x11517, offset: 0x11517, size: 0x8, addend: 0x0, symName: __ZNSt3__111__wrap_iterIP5pointEppB7v160006Ev, symObjAddr: 0x3934, symBinAddr: 0x100006048, symSize: 0x1A8 }
  - { offsetInCU: 0x1153B, offset: 0x1153B, size: 0x8, addend: 0x0, symName: __ZNSt3__16vectorI5pointNS_9allocatorIS1_EEEixB7v160006Em, symObjAddr: 0x3ADC, symBinAddr: 0x1000061F0, symSize: 0x1CC }
  - { offsetInCU: 0x11570, offset: 0x11570, size: 0x8, addend: 0x0, symName: __Z13lowDistSearchNSt3__16vectorINS0_INS0_I5pointNS_9allocatorIS1_EEEENS2_IS4_EEEENS2_IS6_EEEES1_S1_S1_dd, symObjAddr: 0x3CA8, symBinAddr: 0x1000063BC, symSize: 0x137C }
  - { offsetInCU: 0x1162A, offset: 0x1162A, size: 0x8, addend: 0x0, symName: __ZNSt3__16vectorINS0_INS0_I5pointNS_9allocatorIS1_EEEENS2_IS4_EEEENS2_IS6_EEEC1ERKS8_, symObjAddr: 0x5024, symBinAddr: 0x100007738, symSize: 0x80 }
  - { offsetInCU: 0x11664, offset: 0x11664, size: 0x8, addend: 0x0, symName: __ZNSt3__16vectorINS0_INS0_I5pointNS_9allocatorIS1_EEEENS2_IS4_EEEENS2_IS6_EEED1B7v160006Ev, symObjAddr: 0x50A4, symBinAddr: 0x1000077B8, symSize: 0x78 }
  - { offsetInCU: 0x1168D, offset: 0x1168D, size: 0x8, addend: 0x0, symName: __ZNSt3__16vectorI5pointNS_9allocatorIS1_EEED1B7v160006Ev, symObjAddr: 0x511C, symBinAddr: 0x100007830, symSize: 0x78 }
  - { offsetInCU: 0x116BB, offset: 0x116BB, size: 0x8, addend: 0x0, symName: __ZNSt3__114basic_ifstreamIcNS_11char_traitsIcEEED1Ev, symObjAddr: 0x5194, symBinAddr: 0x1000078A8, symSize: 0x8C }
  - { offsetInCU: 0x116E7, offset: 0x116E7, size: 0x8, addend: 0x0, symName: __ZNKSt3__16vectorI5pointNS_9allocatorIS1_EEE4sizeB7v160006Ev, symObjAddr: 0x5220, symBinAddr: 0x100007934, symSize: 0xF8 }
  - { offsetInCU: 0x1170B, offset: 0x1170B, size: 0x8, addend: 0x0, symName: __Z15findLowDistance5pointS_, symObjAddr: 0x5318, symBinAddr: 0x100007A2C, symSize: 0x3F8 }
  - { offsetInCU: 0x1176C, offset: 0x1176C, size: 0x8, addend: 0x0, symName: _main, symObjAddr: 0x5748, symBinAddr: 0x100007E5C, symSize: 0x668 }
  - { offsetInCU: 0x117A8, offset: 0x117A8, size: 0x8, addend: 0x0, symName: __ZNSt3__112basic_stringIcNS_11char_traitsIcEENS_9allocatorIcEEEC1B7v160006Ev, symObjAddr: 0x5DB0, symBinAddr: 0x1000084C4, symSize: 0x78 }
  - { offsetInCU: 0x117D1, offset: 0x117D1, size: 0x8, addend: 0x0, symName: __ZNKSt3__111__wrap_iterIP5pointE4baseB7v160006Ev, symObjAddr: 0x7C88, symBinAddr: 0x10000A39C, symSize: 0xAC }
  - { offsetInCU: 0x117F6, offset: 0x117F6, size: 0x8, addend: 0x0, symName: __ZNSt3__114basic_ifstreamIcNS_11char_traitsIcEEED2Ev, symObjAddr: 0x7D34, symBinAddr: 0x10000A448, symSize: 0x1E8 }
  - { offsetInCU: 0x1182E, offset: 0x1182E, size: 0x8, addend: 0x0, symName: __ZTv0_n24_NSt3__114basic_ifstreamIcNS_11char_traitsIcEEED1Ev, symObjAddr: 0x7F1C, symBinAddr: 0x10000A630, symSize: 0xB0 }
  - { offsetInCU: 0x11845, offset: 0x11845, size: 0x8, addend: 0x0, symName: __ZNSt3__18__iom_t5C1B7v160006Ei, symObjAddr: 0x7FCC, symBinAddr: 0x10000A6E0, symSize: 0x80 }
  - { offsetInCU: 0x1187C, offset: 0x1187C, size: 0x8, addend: 0x0, symName: __ZNSt3__18__iom_t5C2B7v160006Ei, symObjAddr: 0x804C, symBinAddr: 0x10000A760, symSize: 0xF0 }
  - { offsetInCU: 0x118B3, offset: 0x118B3, size: 0x8, addend: 0x0, symName: __ZNSt3__112basic_stringIcNS_11char_traitsIcEENS_9allocatorIcEEEC2B7v160006Ev, symObjAddr: 0x813C, symBinAddr: 0x10000A850, symSize: 0x280 }
  - { offsetInCU: 0x118E2, offset: 0x118E2, size: 0x8, addend: 0x0, symName: __ZNSt3__117__compressed_pairINS_12basic_stringIcNS_11char_traitsIcEENS_9allocatorIcEEE5__repES5_EC1B7v160006INS_18__default_init_tagESA_EEOT_OT0_, symObjAddr: 0x83BC, symBinAddr: 0x10000AAD0, symSize: 0x88 }
  - { offsetInCU: 0x11939, offset: 0x11939, size: 0x8, addend: 0x0, symName: __ZNSt3__112basic_stringIcNS_11char_traitsIcEENS_9allocatorIcEEE14__default_initB7v160006Ev, symObjAddr: 0x8460, symBinAddr: 0x10000AB74, symSize: 0x2B4 }
  - { offsetInCU: 0x1195F, offset: 0x1195F, size: 0x8, addend: 0x0, symName: __ZNSt3__117__compressed_pairINS_12basic_stringIcNS_11char_traitsIcEENS_9allocatorIcEEE5__repES5_EC2B7v160006INS_18__default_init_tagESA_EEOT_OT0_, symObjAddr: 0x8714, symBinAddr: 0x10000AE28, symSize: 0xF4 }
  - { offsetInCU: 0x119B6, offset: 0x119B6, size: 0x8, addend: 0x0, symName: __ZNSt3__122__compressed_pair_elemINS_12basic_stringIcNS_11char_traitsIcEENS_9allocatorIcEEE5__repELi0ELb0EEC2B7v160006ENS_18__default_init_tagE, symObjAddr: 0x8808, symBinAddr: 0x10000AF1C, symSize: 0x6C }
  - { offsetInCU: 0x119EA, offset: 0x119EA, size: 0x8, addend: 0x0, symName: __ZNSt3__122__compressed_pair_elemINS_9allocatorIcEELi1ELb1EEC2B7v160006ENS_18__default_init_tagE, symObjAddr: 0x8874, symBinAddr: 0x10000AF88, symSize: 0x84 }
  - { offsetInCU: 0x11A1E, offset: 0x11A1E, size: 0x8, addend: 0x0, symName: __ZNSt3__19allocatorIcEC2B7v160006Ev, symObjAddr: 0x88F8, symBinAddr: 0x10000B00C, symSize: 0x84 }
  - { offsetInCU: 0x11A47, offset: 0x11A47, size: 0x8, addend: 0x0, symName: __ZNSt3__116__non_trivial_ifILb1ENS_9allocatorIcEEEC2B7v160006Ev, symObjAddr: 0x897C, symBinAddr: 0x10000B090, symSize: 0x54 }
  - { offsetInCU: 0x11A70, offset: 0x11A70, size: 0x8, addend: 0x0, symName: __ZNSt3__117__compressed_pairINS_12basic_stringIcNS_11char_traitsIcEENS_9allocatorIcEEE5__repES5_E5firstB7v160006Ev, symObjAddr: 0x89D0, symBinAddr: 0x10000B0E4, symSize: 0x124 }
  - { offsetInCU: 0x11A95, offset: 0x11A95, size: 0x8, addend: 0x0, symName: __ZNSt3__122__compressed_pair_elemINS_12basic_stringIcNS_11char_traitsIcEENS_9allocatorIcEEE5__repELi0ELb0EE5__getB7v160006Ev, symObjAddr: 0x8AF4, symBinAddr: 0x10000B208, symSize: 0xAC }
  - { offsetInCU: 0x11ABA, offset: 0x11ABA, size: 0x8, addend: 0x0, symName: __ZNSt3__19basic_iosIcNS_11char_traitsIcEEEC2B7v160006Ev, symObjAddr: 0x8BA0, symBinAddr: 0x10000B2B4, symSize: 0x118 }
  - { offsetInCU: 0x11AE3, offset: 0x11AE3, size: 0x8, addend: 0x0, symName: __ZNSt3__113basic_istreamIcNS_11char_traitsIcEEEC2B7v160006EPNS_15basic_streambufIcS2_EE, symObjAddr: 0x8CB8, symBinAddr: 0x10000B3CC, symSize: 0x3B8 }
  - { offsetInCU: 0x11B26, offset: 0x11B26, size: 0x8, addend: 0x0, symName: __ZNSt3__18ios_baseC2B7v160006Ev, symObjAddr: 0x9070, symBinAddr: 0x10000B784, symSize: 0xCC }
  - { offsetInCU: 0x11B4E, offset: 0x11B4E, size: 0x8, addend: 0x0, symName: __ZNSt3__19basic_iosIcNS_11char_traitsIcEEE4initB7v160006EPNS_15basic_streambufIcS2_EE, symObjAddr: 0x913C, symBinAddr: 0x10000B850, symSize: 0x2C8 }
  - { offsetInCU: 0x11B84, offset: 0x11B84, size: 0x8, addend: 0x0, symName: __ZNSt3__111char_traitsIcE3eofEv, symObjAddr: 0x9404, symBinAddr: 0x10000BB18, symSize: 0x8 }
  - { offsetInCU: 0x11B97, offset: 0x11B97, size: 0x8, addend: 0x0, symName: __ZNKSt3__19basic_iosIcNS_11char_traitsIcEEE5widenB7v160006Ec, symObjAddr: 0x940C, symBinAddr: 0x10000BB20, symSize: 0x47C }
  - { offsetInCU: 0x11BFC, offset: 0x11BFC, size: 0x8, addend: 0x0, symName: __ZNKSt3__15ctypeIcE5widenB7v160006Ec, symObjAddr: 0x9A10, symBinAddr: 0x10000C124, symSize: 0x18C }
  - { offsetInCU: 0x11C30, offset: 0x11C30, size: 0x8, addend: 0x0, symName: __ZNSt3__16vectorINS0_INS0_I5pointNS_9allocatorIS1_EEEENS2_IS4_EEEENS2_IS6_EEEC2B7v160006Ev, symObjAddr: 0x9B9C, symBinAddr: 0x10000C2B0, symSize: 0x34C }
  - { offsetInCU: 0x11C5F, offset: 0x11C5F, size: 0x8, addend: 0x0, symName: __ZNSt3__117__compressed_pairIPNS_6vectorINS1_I5pointNS_9allocatorIS2_EEEENS3_IS5_EEEENS3_IS7_EEEC1B7v160006IDnNS_18__default_init_tagEEEOT_OT0_, symObjAddr: 0x9EE8, symBinAddr: 0x10000C5FC, symSize: 0x88 }
  - { offsetInCU: 0x11CB6, offset: 0x11CB6, size: 0x8, addend: 0x0, symName: __ZNSt3__117__compressed_pairIPNS_6vectorINS1_I5pointNS_9allocatorIS2_EEEENS3_IS5_EEEENS3_IS7_EEEC2B7v160006IDnNS_18__default_init_tagEEEOT_OT0_, symObjAddr: 0x9F80, symBinAddr: 0x10000C694, symSize: 0x140 }
  - { offsetInCU: 0x11D0D, offset: 0x11D0D, size: 0x8, addend: 0x0, symName: __ZNSt3__122__compressed_pair_elemIPNS_6vectorINS1_I5pointNS_9allocatorIS2_EEEENS3_IS5_EEEELi0ELb0EEC2B7v160006IDnvEEOT_, symObjAddr: 0xA0C0, symBinAddr: 0x10000C7D4, symSize: 0xBC }
  - { offsetInCU: 0x11D4E, offset: 0x11D4E, size: 0x8, addend: 0x0, symName: __ZNSt3__122__compressed_pair_elemINS_9allocatorINS_6vectorINS2_I5pointNS1_IS3_EEEENS1_IS5_EEEEEELi1ELb1EEC2B7v160006ENS_18__default_init_tagE, symObjAddr: 0xA17C, symBinAddr: 0x10000C890, symSize: 0x84 }
  - { offsetInCU: 0x11D82, offset: 0x11D82, size: 0x8, addend: 0x0, symName: __ZNSt3__19allocatorINS_6vectorINS1_I5pointNS0_IS2_EEEENS0_IS4_EEEEEC2B7v160006Ev, symObjAddr: 0xA200, symBinAddr: 0x10000C914, symSize: 0x84 }
  - { offsetInCU: 0x11DAB, offset: 0x11DAB, size: 0x8, addend: 0x0, symName: __ZNSt3__116__non_trivial_ifILb1ENS_9allocatorINS_6vectorINS2_I5pointNS1_IS3_EEEENS1_IS5_EEEEEEEC2B7v160006Ev, symObjAddr: 0xA284, symBinAddr: 0x10000C998, symSize: 0x54 }
  - { offsetInCU: 0x11DD4, offset: 0x11DD4, size: 0x8, addend: 0x0, symName: __ZNSt3__16vectorINS0_INS0_I5pointNS_9allocatorIS1_EEEENS2_IS4_EEEENS2_IS6_EEED2B7v160006Ev, symObjAddr: 0xA2D8, symBinAddr: 0x10000C9EC, symSize: 0x298 }
  - { offsetInCU: 0x11DFE, offset: 0x11DFE, size: 0x8, addend: 0x0, symName: __ZNSt3__16vectorINS0_INS0_I5pointNS_9allocatorIS1_EEEENS2_IS4_EEEENS2_IS6_EEE16__destroy_vectorC1ERS8_, symObjAddr: 0xA570, symBinAddr: 0x10000CC84, symSize: 0x80 }
  - { offsetInCU: 0x11E36, offset: 0x11E36, size: 0x8, addend: 0x0, symName: __ZNSt3__16vectorINS0_INS0_I5pointNS_9allocatorIS1_EEEENS2_IS4_EEEENS2_IS6_EEE16__destroy_vectorclB7v160006Ev, symObjAddr: 0xA5F0, symBinAddr: 0x10000CD04, symSize: 0x478 }
  - { offsetInCU: 0x11E5B, offset: 0x11E5B, size: 0x8, addend: 0x0, symName: __ZNSt3__16vectorINS0_INS0_I5pointNS_9allocatorIS1_EEEENS2_IS4_EEEENS2_IS6_EEE16__destroy_vectorC2ERS8_, symObjAddr: 0xAA68, symBinAddr: 0x10000D17C, symSize: 0x108 }
  - { offsetInCU: 0x11E93, offset: 0x11E93, size: 0x8, addend: 0x0, symName: __ZNKSt3__16vectorINS0_INS0_I5pointNS_9allocatorIS1_EEEENS2_IS4_EEEENS2_IS6_EEE17__annotate_deleteB7v160006Ev, symObjAddr: 0xAB70, symBinAddr: 0x10000D284, symSize: 0x388 }
  - { offsetInCU: 0x11EB8, offset: 0x11EB8, size: 0x8, addend: 0x0, symName: __ZNSt3__16vectorINS0_INS0_I5pointNS_9allocatorIS1_EEEENS2_IS4_EEEENS2_IS6_EEE7__clearB7v160006Ev, symObjAddr: 0xAF08, symBinAddr: 0x10000D61C, symSize: 0xB0 }
  - { offsetInCU: 0x11EDD, offset: 0x11EDD, size: 0x8, addend: 0x0, symName: __ZNSt3__116allocator_traitsINS_9allocatorINS_6vectorINS2_I5pointNS1_IS3_EEEENS1_IS5_EEEEEEE10deallocateB7v160006ERS8_PS7_m, symObjAddr: 0xAFB8, symBinAddr: 0x10000D6CC, symSize: 0x34 }
  - { offsetInCU: 0x11F1F, offset: 0x11F1F, size: 0x8, addend: 0x0, symName: __ZNSt3__16vectorINS0_INS0_I5pointNS_9allocatorIS1_EEEENS2_IS4_EEEENS2_IS6_EEE7__allocB7v160006Ev, symObjAddr: 0xAFEC, symBinAddr: 0x10000D700, symSize: 0xE4 }
  - { offsetInCU: 0x11F44, offset: 0x11F44, size: 0x8, addend: 0x0, symName: __ZNKSt3__16vectorINS0_INS0_I5pointNS_9allocatorIS1_EEEENS2_IS4_EEEENS2_IS6_EEE8capacityB7v160006Ev, symObjAddr: 0xB0D0, symBinAddr: 0x10000D7E4, symSize: 0x144 }
  - { offsetInCU: 0x11F69, offset: 0x11F69, size: 0x8, addend: 0x0, symName: __ZNKSt3__16vectorINS0_INS0_I5pointNS_9allocatorIS1_EEEENS2_IS4_EEEENS2_IS6_EEE31__annotate_contiguous_containerEPKvSA_SA_SA_, symObjAddr: 0xB214, symBinAddr: 0x10000D928, symSize: 0x9C }
  - { offsetInCU: 0x11FCA, offset: 0x11FCA, size: 0x8, addend: 0x0, symName: __ZNKSt3__16vectorINS0_INS0_I5pointNS_9allocatorIS1_EEEENS2_IS4_EEEENS2_IS6_EEE4dataB7v160006Ev, symObjAddr: 0xB2B0, symBinAddr: 0x10000D9C4, symSize: 0xB0 }
  - { offsetInCU: 0x11FEF, offset: 0x11FEF, size: 0x8, addend: 0x0, symName: __ZNSt3__16vectorINS0_INS0_I5pointNS_9allocatorIS1_EEEENS2_IS4_EEEENS2_IS6_EEE22__base_destruct_at_endB7v160006EPS6_, symObjAddr: 0xB374, symBinAddr: 0x10000DA88, symSize: 0x1FC }
  - { offsetInCU: 0x12032, offset: 0x12032, size: 0x8, addend: 0x0, symName: __ZNSt3__116allocator_traitsINS_9allocatorINS_6vectorINS2_I5pointNS1_IS3_EEEENS1_IS5_EEEEEEE7destroyB7v160006IS7_vEEvRS8_PT_, symObjAddr: 0xB570, symBinAddr: 0x10000DC84, symSize: 0x2C }
  - { offsetInCU: 0x1206F, offset: 0x1206F, size: 0x8, addend: 0x0, symName: __ZNSt3__19allocatorINS_6vectorINS1_I5pointNS0_IS2_EEEENS0_IS4_EEEEE7destroyB7v160006EPS6_, symObjAddr: 0xB59C, symBinAddr: 0x10000DCB0, symSize: 0x9C }
  - { offsetInCU: 0x120A2, offset: 0x120A2, size: 0x8, addend: 0x0, symName: __ZNSt3__16vectorINS0_I5pointNS_9allocatorIS1_EEEENS2_IS4_EEED1B7v160006Ev, symObjAddr: 0xB638, symBinAddr: 0x10000DD4C, symSize: 0x78 }
  - { offsetInCU: 0x120CB, offset: 0x120CB, size: 0x8, addend: 0x0, symName: __ZNSt3__16vectorINS0_I5pointNS_9allocatorIS1_EEEENS2_IS4_EEED2B7v160006Ev, symObjAddr: 0xB6B0, symBinAddr: 0x10000DDC4, symSize: 0x298 }
  - { offsetInCU: 0x120F5, offset: 0x120F5, size: 0x8, addend: 0x0, symName: __ZNSt3__16vectorINS0_I5pointNS_9allocatorIS1_EEEENS2_IS4_EEE16__destroy_vectorC1ERS6_, symObjAddr: 0xB948, symBinAddr: 0x10000E05C, symSize: 0x80 }
  - { offsetInCU: 0x1212D, offset: 0x1212D, size: 0x8, addend: 0x0, symName: __ZNSt3__16vectorINS0_I5pointNS_9allocatorIS1_EEEENS2_IS4_EEE16__destroy_vectorclB7v160006Ev, symObjAddr: 0xB9C8, symBinAddr: 0x10000E0DC, symSize: 0x478 }
  - { offsetInCU: 0x12152, offset: 0x12152, size: 0x8, addend: 0x0, symName: __ZNSt3__16vectorINS0_I5pointNS_9allocatorIS1_EEEENS2_IS4_EEE16__destroy_vectorC2ERS6_, symObjAddr: 0xBE40, symBinAddr: 0x10000E554, symSize: 0x108 }
  - { offsetInCU: 0x1218A, offset: 0x1218A, size: 0x8, addend: 0x0, symName: __ZNKSt3__16vectorINS0_I5pointNS_9allocatorIS1_EEEENS2_IS4_EEE17__annotate_deleteB7v160006Ev, symObjAddr: 0xBF48, symBinAddr: 0x10000E65C, symSize: 0x388 }
  - { offsetInCU: 0x121AF, offset: 0x121AF, size: 0x8, addend: 0x0, symName: __ZNSt3__16vectorINS0_I5pointNS_9allocatorIS1_EEEENS2_IS4_EEE7__clearB7v160006Ev, symObjAddr: 0xC2E0, symBinAddr: 0x10000E9F4, symSize: 0xB0 }
  - { offsetInCU: 0x121D4, offset: 0x121D4, size: 0x8, addend: 0x0, symName: __ZNSt3__116allocator_traitsINS_9allocatorINS_6vectorI5pointNS1_IS3_EEEEEEE10deallocateB7v160006ERS6_PS5_m, symObjAddr: 0xC390, symBinAddr: 0x10000EAA4, symSize: 0x34 }
  - { offsetInCU: 0x12216, offset: 0x12216, size: 0x8, addend: 0x0, symName: __ZNSt3__16vectorINS0_I5pointNS_9allocatorIS1_EEEENS2_IS4_EEE7__allocB7v160006Ev, symObjAddr: 0xC3C4, symBinAddr: 0x10000EAD8, symSize: 0xE4 }
  - { offsetInCU: 0x1223B, offset: 0x1223B, size: 0x8, addend: 0x0, symName: __ZNKSt3__16vectorINS0_I5pointNS_9allocatorIS1_EEEENS2_IS4_EEE8capacityB7v160006Ev, symObjAddr: 0xC4A8, symBinAddr: 0x10000EBBC, symSize: 0x144 }
  - { offsetInCU: 0x12260, offset: 0x12260, size: 0x8, addend: 0x0, symName: __ZNKSt3__16vectorINS0_I5pointNS_9allocatorIS1_EEEENS2_IS4_EEE31__annotate_contiguous_containerEPKvS8_S8_S8_, symObjAddr: 0xC5EC, symBinAddr: 0x10000ED00, symSize: 0x9C }
  - { offsetInCU: 0x122C1, offset: 0x122C1, size: 0x8, addend: 0x0, symName: __ZNKSt3__16vectorINS0_I5pointNS_9allocatorIS1_EEEENS2_IS4_EEE4dataB7v160006Ev, symObjAddr: 0xC688, symBinAddr: 0x10000ED9C, symSize: 0xB0 }
  - { offsetInCU: 0x122E6, offset: 0x122E6, size: 0x8, addend: 0x0, symName: __ZNKSt3__16vectorINS0_I5pointNS_9allocatorIS1_EEEENS2_IS4_EEE4sizeB7v160006Ev, symObjAddr: 0xC738, symBinAddr: 0x10000EE4C, symSize: 0xF8 }
  - { offsetInCU: 0x1230B, offset: 0x1230B, size: 0x8, addend: 0x0, symName: __ZNSt3__16vectorINS0_I5pointNS_9allocatorIS1_EEEENS2_IS4_EEE22__base_destruct_at_endB7v160006EPS4_, symObjAddr: 0xC844, symBinAddr: 0x10000EF58, symSize: 0x1FC }
  - { offsetInCU: 0x1234E, offset: 0x1234E, size: 0x8, addend: 0x0, symName: __ZNSt3__116allocator_traitsINS_9allocatorINS_6vectorI5pointNS1_IS3_EEEEEEE7destroyB7v160006IS5_vEEvRS6_PT_, symObjAddr: 0xCA40, symBinAddr: 0x10000F154, symSize: 0x2C }
  - { offsetInCU: 0x1238B, offset: 0x1238B, size: 0x8, addend: 0x0, symName: __ZNSt3__19allocatorINS_6vectorI5pointNS0_IS2_EEEEE7destroyB7v160006EPS4_, symObjAddr: 0xCA6C, symBinAddr: 0x10000F180, symSize: 0x9C }
  - { offsetInCU: 0x123BE, offset: 0x123BE, size: 0x8, addend: 0x0, symName: __ZNSt3__19allocatorINS_6vectorI5pointNS0_IS2_EEEEE10deallocateB7v160006EPS4_m, symObjAddr: 0xCB08, symBinAddr: 0x10000F21C, symSize: 0x7C }
  - { offsetInCU: 0x123FF, offset: 0x123FF, size: 0x8, addend: 0x0, symName: __ZNSt3__117__compressed_pairIPNS_6vectorI5pointNS_9allocatorIS2_EEEENS3_IS5_EEE6secondB7v160006Ev, symObjAddr: 0xCC00, symBinAddr: 0x10000F314, symSize: 0x108 }
  - { offsetInCU: 0x12424, offset: 0x12424, size: 0x8, addend: 0x0, symName: __ZNSt3__122__compressed_pair_elemINS_9allocatorINS_6vectorI5pointNS1_IS3_EEEEEELi1ELb1EE5__getB7v160006Ev, symObjAddr: 0xCD08, symBinAddr: 0x10000F41C, symSize: 0x74 }
  - { offsetInCU: 0x12449, offset: 0x12449, size: 0x8, addend: 0x0, symName: __ZNKSt3__16vectorINS0_I5pointNS_9allocatorIS1_EEEENS2_IS4_EEE9__end_capB7v160006Ev, symObjAddr: 0xCD7C, symBinAddr: 0x10000F490, symSize: 0x100 }
  - { offsetInCU: 0x1246E, offset: 0x1246E, size: 0x8, addend: 0x0, symName: __ZNKSt3__117__compressed_pairIPNS_6vectorI5pointNS_9allocatorIS2_EEEENS3_IS5_EEE5firstB7v160006Ev, symObjAddr: 0xCE7C, symBinAddr: 0x10000F590, symSize: 0x124 }
  - { offsetInCU: 0x12493, offset: 0x12493, size: 0x8, addend: 0x0, symName: __ZNKSt3__122__compressed_pair_elemIPNS_6vectorI5pointNS_9allocatorIS2_EEEELi0ELb0EE5__getB7v160006Ev, symObjAddr: 0xCFA0, symBinAddr: 0x10000F6B4, symSize: 0xAC }
  - { offsetInCU: 0x124B8, offset: 0x124B8, size: 0x8, addend: 0x0, symName: __ZNSt3__19allocatorINS_6vectorINS1_I5pointNS0_IS2_EEEENS0_IS4_EEEEE10deallocateB7v160006EPS6_m, symObjAddr: 0xD04C, symBinAddr: 0x10000F760, symSize: 0x7C }
  - { offsetInCU: 0x124F9, offset: 0x124F9, size: 0x8, addend: 0x0, symName: __ZNSt3__117__compressed_pairIPNS_6vectorINS1_I5pointNS_9allocatorIS2_EEEENS3_IS5_EEEENS3_IS7_EEE6secondB7v160006Ev, symObjAddr: 0xD0C8, symBinAddr: 0x10000F7DC, symSize: 0x108 }
  - { offsetInCU: 0x1251E, offset: 0x1251E, size: 0x8, addend: 0x0, symName: __ZNSt3__122__compressed_pair_elemINS_9allocatorINS_6vectorINS2_I5pointNS1_IS3_EEEENS1_IS5_EEEEEELi1ELb1EE5__getB7v160006Ev, symObjAddr: 0xD1D0, symBinAddr: 0x10000F8E4, symSize: 0x74 }
  - { offsetInCU: 0x12543, offset: 0x12543, size: 0x8, addend: 0x0, symName: __ZNKSt3__16vectorINS0_INS0_I5pointNS_9allocatorIS1_EEEENS2_IS4_EEEENS2_IS6_EEE9__end_capB7v160006Ev, symObjAddr: 0xD244, symBinAddr: 0x10000F958, symSize: 0x100 }
  - { offsetInCU: 0x12568, offset: 0x12568, size: 0x8, addend: 0x0, symName: __ZNKSt3__117__compressed_pairIPNS_6vectorINS1_I5pointNS_9allocatorIS2_EEEENS3_IS5_EEEENS3_IS7_EEE5firstB7v160006Ev, symObjAddr: 0xD344, symBinAddr: 0x10000FA58, symSize: 0x124 }
  - { offsetInCU: 0x1258D, offset: 0x1258D, size: 0x8, addend: 0x0, symName: __ZNKSt3__122__compressed_pair_elemIPNS_6vectorINS1_I5pointNS_9allocatorIS2_EEEENS3_IS5_EEEELi0ELb0EE5__getB7v160006Ev, symObjAddr: 0xD468, symBinAddr: 0x10000FB7C, symSize: 0xAC }
  - { offsetInCU: 0x125B2, offset: 0x125B2, size: 0x8, addend: 0x0, symName: __ZNSt3__16vectorI5pointNS_9allocatorIS1_EEEC2B7v160006Ev, symObjAddr: 0xD514, symBinAddr: 0x10000FC28, symSize: 0x34C }
  - { offsetInCU: 0x125DC, offset: 0x125DC, size: 0x8, addend: 0x0, symName: __ZNSt3__117__compressed_pairIP5pointNS_9allocatorIS1_EEEC1B7v160006IDnNS_18__default_init_tagEEEOT_OT0_, symObjAddr: 0xD860, symBinAddr: 0x10000FF74, symSize: 0x88 }
  - { offsetInCU: 0x12633, offset: 0x12633, size: 0x8, addend: 0x0, symName: __ZNSt3__117__compressed_pairIP5pointNS_9allocatorIS1_EEEC2B7v160006IDnNS_18__default_init_tagEEEOT_OT0_, symObjAddr: 0xD8F8, symBinAddr: 0x10001000C, symSize: 0x140 }
  - { offsetInCU: 0x1268A, offset: 0x1268A, size: 0x8, addend: 0x0, symName: __ZNSt3__122__compressed_pair_elemIP5pointLi0ELb0EEC2B7v160006IDnvEEOT_, symObjAddr: 0xDA38, symBinAddr: 0x10001014C, symSize: 0xBC }
  - { offsetInCU: 0x126CB, offset: 0x126CB, size: 0x8, addend: 0x0, symName: __ZNSt3__122__compressed_pair_elemINS_9allocatorI5pointEELi1ELb1EEC2B7v160006ENS_18__default_init_tagE, symObjAddr: 0xDAF4, symBinAddr: 0x100010208, symSize: 0x84 }
  - { offsetInCU: 0x126FF, offset: 0x126FF, size: 0x8, addend: 0x0, symName: __ZNSt3__19allocatorI5pointEC2B7v160006Ev, symObjAddr: 0xDB78, symBinAddr: 0x10001028C, symSize: 0x84 }
  - { offsetInCU: 0x12728, offset: 0x12728, size: 0x8, addend: 0x0, symName: __ZNSt3__116__non_trivial_ifILb1ENS_9allocatorI5pointEEEC2B7v160006Ev, symObjAddr: 0xDBFC, symBinAddr: 0x100010310, symSize: 0x54 }
  - { offsetInCU: 0x12751, offset: 0x12751, size: 0x8, addend: 0x0, symName: __ZNSt3__16vectorI5pointNS_9allocatorIS1_EEED2B7v160006Ev, symObjAddr: 0xDC50, symBinAddr: 0x100010364, symSize: 0x298 }
  - { offsetInCU: 0x1277B, offset: 0x1277B, size: 0x8, addend: 0x0, symName: __ZNSt3__16vectorI5pointNS_9allocatorIS1_EEE16__destroy_vectorC1ERS4_, symObjAddr: 0xDEE8, symBinAddr: 0x1000105FC, symSize: 0x80 }
  - { offsetInCU: 0x127B3, offset: 0x127B3, size: 0x8, addend: 0x0, symName: __ZNSt3__16vectorI5pointNS_9allocatorIS1_EEE16__destroy_vectorclB7v160006Ev, symObjAddr: 0xDF68, symBinAddr: 0x10001067C, symSize: 0x478 }
  - { offsetInCU: 0x127D8, offset: 0x127D8, size: 0x8, addend: 0x0, symName: __ZNSt3__16vectorI5pointNS_9allocatorIS1_EEE16__destroy_vectorC2ERS4_, symObjAddr: 0xE3E0, symBinAddr: 0x100010AF4, symSize: 0x108 }
  - { offsetInCU: 0x12810, offset: 0x12810, size: 0x8, addend: 0x0, symName: __ZNKSt3__16vectorI5pointNS_9allocatorIS1_EEE17__annotate_deleteB7v160006Ev, symObjAddr: 0xE4E8, symBinAddr: 0x100010BFC, symSize: 0x370 }
  - { offsetInCU: 0x12835, offset: 0x12835, size: 0x8, addend: 0x0, symName: __ZNSt3__16vectorI5pointNS_9allocatorIS1_EEE7__clearB7v160006Ev, symObjAddr: 0xE868, symBinAddr: 0x100010F7C, symSize: 0xB0 }
  - { offsetInCU: 0x1285A, offset: 0x1285A, size: 0x8, addend: 0x0, symName: __ZNSt3__116allocator_traitsINS_9allocatorI5pointEEE10deallocateB7v160006ERS3_PS2_m, symObjAddr: 0xE918, symBinAddr: 0x10001102C, symSize: 0x34 }
  - { offsetInCU: 0x1289C, offset: 0x1289C, size: 0x8, addend: 0x0, symName: __ZNSt3__16vectorI5pointNS_9allocatorIS1_EEE7__allocB7v160006Ev, symObjAddr: 0xE94C, symBinAddr: 0x100011060, symSize: 0xE4 }
  - { offsetInCU: 0x128C1, offset: 0x128C1, size: 0x8, addend: 0x0, symName: __ZNKSt3__16vectorI5pointNS_9allocatorIS1_EEE8capacityB7v160006Ev, symObjAddr: 0xEA30, symBinAddr: 0x100011144, symSize: 0x144 }
  - { offsetInCU: 0x128E6, offset: 0x128E6, size: 0x8, addend: 0x0, symName: __ZNKSt3__16vectorI5pointNS_9allocatorIS1_EEE31__annotate_contiguous_containerEPKvS6_S6_S6_, symObjAddr: 0xEB74, symBinAddr: 0x100011288, symSize: 0x9C }
  - { offsetInCU: 0x12947, offset: 0x12947, size: 0x8, addend: 0x0, symName: __ZNKSt3__16vectorI5pointNS_9allocatorIS1_EEE4dataB7v160006Ev, symObjAddr: 0xEC10, symBinAddr: 0x100011324, symSize: 0xB0 }
  - { offsetInCU: 0x1296C, offset: 0x1296C, size: 0x8, addend: 0x0, symName: __ZNSt3__16vectorI5pointNS_9allocatorIS1_EEE22__base_destruct_at_endB7v160006EPS1_, symObjAddr: 0xECD4, symBinAddr: 0x1000113E8, symSize: 0x1FC }
  - { offsetInCU: 0x129AF, offset: 0x129AF, size: 0x8, addend: 0x0, symName: __ZNSt3__116allocator_traitsINS_9allocatorI5pointEEE7destroyB7v160006IS2_vEEvRS3_PT_, symObjAddr: 0xEED0, symBinAddr: 0x1000115E4, symSize: 0x2C }
  - { offsetInCU: 0x129EC, offset: 0x129EC, size: 0x8, addend: 0x0, symName: __ZNSt3__19allocatorI5pointE7destroyB7v160006EPS1_, symObjAddr: 0xEEFC, symBinAddr: 0x100011610, symSize: 0x4C }
  - { offsetInCU: 0x12A1F, offset: 0x12A1F, size: 0x8, addend: 0x0, symName: __ZNSt3__19allocatorI5pointE10deallocateB7v160006EPS1_m, symObjAddr: 0xEF48, symBinAddr: 0x10001165C, symSize: 0x78 }
  - { offsetInCU: 0x12A60, offset: 0x12A60, size: 0x8, addend: 0x0, symName: __ZNSt3__117__compressed_pairIP5pointNS_9allocatorIS1_EEE6secondB7v160006Ev, symObjAddr: 0xEFC0, symBinAddr: 0x1000116D4, symSize: 0x108 }
  - { offsetInCU: 0x12A85, offset: 0x12A85, size: 0x8, addend: 0x0, symName: __ZNSt3__122__compressed_pair_elemINS_9allocatorI5pointEELi1ELb1EE5__getB7v160006Ev, symObjAddr: 0xF0C8, symBinAddr: 0x1000117DC, symSize: 0x74 }
  - { offsetInCU: 0x12AAA, offset: 0x12AAA, size: 0x8, addend: 0x0, symName: __ZNKSt3__16vectorI5pointNS_9allocatorIS1_EEE9__end_capB7v160006Ev, symObjAddr: 0xF13C, symBinAddr: 0x100011850, symSize: 0x100 }
  - { offsetInCU: 0x12ACF, offset: 0x12ACF, size: 0x8, addend: 0x0, symName: __ZNKSt3__117__compressed_pairIP5pointNS_9allocatorIS1_EEE5firstB7v160006Ev, symObjAddr: 0xF23C, symBinAddr: 0x100011950, symSize: 0x124 }
  - { offsetInCU: 0x12AF4, offset: 0x12AF4, size: 0x8, addend: 0x0, symName: __ZNKSt3__122__compressed_pair_elemIP5pointLi0ELb0EE5__getB7v160006Ev, symObjAddr: 0xF360, symBinAddr: 0x100011A74, symSize: 0xAC }
  - { offsetInCU: 0x12B18, offset: 0x12B18, size: 0x8, addend: 0x0, symName: __ZNKSt3__18ios_base3eofB7v160006Ev, symObjAddr: 0xF40C, symBinAddr: 0x100011B20, symSize: 0x16C }
  - { offsetInCU: 0x12B3F, offset: 0x12B3F, size: 0x8, addend: 0x0, symName: __ZNSt3__16vectorI5pointNS_9allocatorIS1_EEE9__end_capB7v160006Ev, symObjAddr: 0xF578, symBinAddr: 0x100011C8C, symSize: 0x100 }
  - { offsetInCU: 0x12B64, offset: 0x12B64, size: 0x8, addend: 0x0, symName: __ZNSt3__16vectorI5pointNS_9allocatorIS1_EEE22__construct_one_at_endB7v160006IJRKS1_EEEvDpOT_, symObjAddr: 0xF678, symBinAddr: 0x100011D8C, symSize: 0x550 }
  - { offsetInCU: 0x12BB7, offset: 0x12BB7, size: 0x8, addend: 0x0, symName: __ZNSt3__16vectorI5pointNS_9allocatorIS1_EEE21__push_back_slow_pathIRKS1_EEvOT_, symObjAddr: 0xFBC8, symBinAddr: 0x1000122DC, symSize: 0x5B0 }
  - { offsetInCU: 0x12C1B, offset: 0x12C1B, size: 0x8, addend: 0x0, symName: __ZNSt3__117__compressed_pairIP5pointNS_9allocatorIS1_EEE5firstB7v160006Ev, symObjAddr: 0x10178, symBinAddr: 0x10001288C, symSize: 0x124 }
  - { offsetInCU: 0x12C40, offset: 0x12C40, size: 0x8, addend: 0x0, symName: __ZNSt3__122__compressed_pair_elemIP5pointLi0ELb0EE5__getB7v160006Ev, symObjAddr: 0x1029C, symBinAddr: 0x1000129B0, symSize: 0xAC }
  - { offsetInCU: 0x12C7E, offset: 0x12C7E, size: 0x8, addend: 0x0, symName: __ZNSt3__16vectorI5pointNS_9allocatorIS1_EEE21_ConstructTransactionC1B7v160006ERS4_m, symObjAddr: 0x10348, symBinAddr: 0x100012A5C, symSize: 0x88 }
  - { offsetInCU: 0x12CC5, offset: 0x12CC5, size: 0x8, addend: 0x0, symName: __ZNSt3__116allocator_traitsINS_9allocatorI5pointEEE9constructB7v160006IS2_JRKS2_EvEEvRS3_PT_DpOT0_, symObjAddr: 0x103D0, symBinAddr: 0x100012AE4, symSize: 0x8C }
  - { offsetInCU: 0x12D1C, offset: 0x12D1C, size: 0x8, addend: 0x0, symName: __ZNSt3__16vectorI5pointNS_9allocatorIS1_EEE21_ConstructTransactionD1B7v160006Ev, symObjAddr: 0x1045C, symBinAddr: 0x100012B70, symSize: 0x78 }
  - { offsetInCU: 0x12D45, offset: 0x12D45, size: 0x8, addend: 0x0, symName: __ZNSt3__16vectorI5pointNS_9allocatorIS1_EEE21_ConstructTransactionC2B7v160006ERS4_m, symObjAddr: 0x104D4, symBinAddr: 0x100012BE8, symSize: 0x3D8 }
  - { offsetInCU: 0x12D8C, offset: 0x12D8C, size: 0x8, addend: 0x0, symName: __ZNKSt3__16vectorI5pointNS_9allocatorIS1_EEE19__annotate_increaseB7v160006Em, symObjAddr: 0x108AC, symBinAddr: 0x100012FC0, symSize: 0x44C }
  - { offsetInCU: 0x12DC0, offset: 0x12DC0, size: 0x8, addend: 0x0, symName: __ZNSt3__19allocatorI5pointE9constructB7v160006IS1_JRKS1_EEEvPT_DpOT0_, symObjAddr: 0x10CF8, symBinAddr: 0x10001340C, symSize: 0xA8 }
  - { offsetInCU: 0x12E15, offset: 0x12E15, size: 0x8, addend: 0x0, symName: __ZNSt3__16vectorI5pointNS_9allocatorIS1_EEE21_ConstructTransactionD2B7v160006Ev, symObjAddr: 0x10DA0, symBinAddr: 0x1000134B4, symSize: 0x390 }
  - { offsetInCU: 0x12E3E, offset: 0x12E3E, size: 0x8, addend: 0x0, symName: __ZNKSt3__16vectorI5pointNS_9allocatorIS1_EEE17__annotate_shrinkB7v160006Em, symObjAddr: 0x11130, symBinAddr: 0x100013844, symSize: 0x360 }
  - { offsetInCU: 0x12E71, offset: 0x12E71, size: 0x8, addend: 0x0, symName: __ZNKSt3__16vectorI5pointNS_9allocatorIS1_EEE11__recommendB7v160006Em, symObjAddr: 0x11490, symBinAddr: 0x100013BA4, symSize: 0x45C }
  - { offsetInCU: 0x12ECC, offset: 0x12ECC, size: 0x8, addend: 0x0, symName: __ZNSt3__114__split_bufferI5pointRNS_9allocatorIS1_EEEC1EmmS4_, symObjAddr: 0x118EC, symBinAddr: 0x100014000, symSize: 0x90 }
  - { offsetInCU: 0x12F21, offset: 0x12F21, size: 0x8, addend: 0x0, symName: __ZNSt3__114__split_bufferI5pointRNS_9allocatorIS1_EEED1Ev, symObjAddr: 0x121E0, symBinAddr: 0x1000148F4, symSize: 0x78 }
  - { offsetInCU: 0x12F4B, offset: 0x12F4B, size: 0x8, addend: 0x0, symName: __ZNKSt3__16vectorI5pointNS_9allocatorIS1_EEE8max_sizeEv, symObjAddr: 0x12258, symBinAddr: 0x10001496C, symSize: 0x3B8 }
  - { offsetInCU: 0x12F73, offset: 0x12F73, size: 0x8, addend: 0x0, symName: __ZNKSt3__16vectorI5pointNS_9allocatorIS1_EEE20__throw_length_errorB7v160006Ev, symObjAddr: 0x12610, symBinAddr: 0x100014D24, symSize: 0x80 }
  - { offsetInCU: 0x12FA2, offset: 0x12FA2, size: 0x8, addend: 0x0, symName: __ZNSt3__116allocator_traitsINS_9allocatorI5pointEEE8max_sizeB7v160006IS3_vEEmRKS3_, symObjAddr: 0x12898, symBinAddr: 0x100014FAC, symSize: 0x24 }
  - { offsetInCU: 0x12FD0, offset: 0x12FD0, size: 0x8, addend: 0x0, symName: __ZNKSt3__16vectorI5pointNS_9allocatorIS1_EEE7__allocB7v160006Ev, symObjAddr: 0x128BC, symBinAddr: 0x100014FD0, symSize: 0xE4 }
  - { offsetInCU: 0x12FF5, offset: 0x12FF5, size: 0x8, addend: 0x0, symName: __ZNSt3__114numeric_limitsIlE3maxB7v160006Ev, symObjAddr: 0x129A0, symBinAddr: 0x1000150B4, symSize: 0x14 }
  - { offsetInCU: 0x1301D, offset: 0x1301D, size: 0x8, addend: 0x0, symName: __ZNKSt3__16__lessImmEclB7v160006ERKmS3_, symObjAddr: 0x12C74, symBinAddr: 0x100015388, symSize: 0xEC }
  - { offsetInCU: 0x1305E, offset: 0x1305E, size: 0x8, addend: 0x0, symName: __ZNKSt3__19allocatorI5pointE8max_sizeB7v160006Ev, symObjAddr: 0x12D60, symBinAddr: 0x100015474, symSize: 0x4C }
  - { offsetInCU: 0x13083, offset: 0x13083, size: 0x8, addend: 0x0, symName: __ZNKSt3__117__compressed_pairIP5pointNS_9allocatorIS1_EEE6secondB7v160006Ev, symObjAddr: 0x12DAC, symBinAddr: 0x1000154C0, symSize: 0x108 }
  - { offsetInCU: 0x130A8, offset: 0x130A8, size: 0x8, addend: 0x0, symName: __ZNKSt3__122__compressed_pair_elemINS_9allocatorI5pointEELi1ELb1EE5__getB7v160006Ev, symObjAddr: 0x12EB4, symBinAddr: 0x1000155C8, symSize: 0x74 }
  - { offsetInCU: 0x130CD, offset: 0x130CD, size: 0x8, addend: 0x0, symName: __ZNSt3__123__libcpp_numeric_limitsIlLb1EE3maxB7v160006Ev, symObjAddr: 0x12F28, symBinAddr: 0x10001563C, symSize: 0x8 }
  - { offsetInCU: 0x130E1, offset: 0x130E1, size: 0x8, addend: 0x0, symName: __ZNSt12length_errorC1B7v160006EPKc, symObjAddr: 0x12FE4, symBinAddr: 0x1000156F8, symSize: 0x80 }
  - { offsetInCU: 0x13118, offset: 0x13118, size: 0x8, addend: 0x0, symName: __ZNSt12length_errorC2B7v160006EPKc, symObjAddr: 0x13064, symBinAddr: 0x100015778, symSize: 0x128 }
  - { offsetInCU: 0x1314F, offset: 0x1314F, size: 0x8, addend: 0x0, symName: __ZNSt3__114__split_bufferI5pointRNS_9allocatorIS1_EEEC2EmmS4_, symObjAddr: 0x1344C, symBinAddr: 0x100015B60, symSize: 0x7D8 }
  - { offsetInCU: 0x131CA, offset: 0x131CA, size: 0x8, addend: 0x0, symName: __ZNSt3__117__compressed_pairIP5pointRNS_9allocatorIS1_EEEC1B7v160006IDnS5_EEOT_OT0_, symObjAddr: 0x13C24, symBinAddr: 0x100016338, symSize: 0x88 }
  - { offsetInCU: 0x13221, offset: 0x13221, size: 0x8, addend: 0x0, symName: __ZNSt3__114__split_bufferI5pointRNS_9allocatorIS1_EEE7__allocB7v160006Ev, symObjAddr: 0x13F38, symBinAddr: 0x10001664C, symSize: 0xE4 }
  - { offsetInCU: 0x13246, offset: 0x13246, size: 0x8, addend: 0x0, symName: __ZNSt3__114__split_bufferI5pointRNS_9allocatorIS1_EEE9__end_capB7v160006Ev, symObjAddr: 0x1401C, symBinAddr: 0x100016730, symSize: 0x100 }
  - { offsetInCU: 0x1326B, offset: 0x1326B, size: 0x8, addend: 0x0, symName: __ZNSt3__117__compressed_pairIP5pointRNS_9allocatorIS1_EEEC2B7v160006IDnS5_EEOT_OT0_, symObjAddr: 0x1411C, symBinAddr: 0x100016830, symSize: 0x198 }
  - { offsetInCU: 0x132C2, offset: 0x132C2, size: 0x8, addend: 0x0, symName: __ZNSt3__122__compressed_pair_elemIRNS_9allocatorI5pointEELi1ELb0EEC2B7v160006IS4_vEEOT_, symObjAddr: 0x142B4, symBinAddr: 0x1000169C8, symSize: 0xEC }
  - { offsetInCU: 0x13303, offset: 0x13303, size: 0x8, addend: 0x0, symName: __ZNSt3__19allocatorI5pointE8allocateB7v160006Em, symObjAddr: 0x143A0, symBinAddr: 0x100016AB4, symSize: 0xCC }
  - { offsetInCU: 0x13336, offset: 0x13336, size: 0x8, addend: 0x0, symName: __ZNSt3__117__compressed_pairIP5pointRNS_9allocatorIS1_EEE6secondB7v160006Ev, symObjAddr: 0x14534, symBinAddr: 0x100016C48, symSize: 0x110 }
  - { offsetInCU: 0x1335B, offset: 0x1335B, size: 0x8, addend: 0x0, symName: __ZNSt3__122__compressed_pair_elemIRNS_9allocatorI5pointEELi1ELb0EE5__getB7v160006Ev, symObjAddr: 0x14644, symBinAddr: 0x100016D58, symSize: 0xD8 }
  - { offsetInCU: 0x13380, offset: 0x13380, size: 0x8, addend: 0x0, symName: __ZNSt3__117__compressed_pairIP5pointRNS_9allocatorIS1_EEE5firstB7v160006Ev, symObjAddr: 0x1471C, symBinAddr: 0x100016E30, symSize: 0x124 }
  - { offsetInCU: 0x133A5, offset: 0x133A5, size: 0x8, addend: 0x0, symName: __ZNSt3__116reverse_iteratorIP5pointEC1B7v160006ES2_, symObjAddr: 0x14CE8, symBinAddr: 0x1000173FC, symSize: 0x80 }
  - { offsetInCU: 0x133DC, offset: 0x133DC, size: 0x8, addend: 0x0, symName: __ZNKSt3__116reverse_iteratorIP5pointE4baseB7v160006Ev, symObjAddr: 0x14D68, symBinAddr: 0x10001747C, symSize: 0xB0 }
  - { offsetInCU: 0x13401, offset: 0x13401, size: 0x8, addend: 0x0, symName: __ZNKSt3__16vectorI5pointNS_9allocatorIS1_EEE14__annotate_newB7v160006Em, symObjAddr: 0x14FD8, symBinAddr: 0x1000176EC, symSize: 0x360 }
  - { offsetInCU: 0x13458, offset: 0x13458, size: 0x8, addend: 0x0, symName: __ZNKSt3__111__move_loopINS_17_ClassicAlgPolicyEEclB7v160006INS_16reverse_iteratorIP5pointEES7_S7_EENS_4pairIT_T1_EES9_T0_SA_, symObjAddr: 0x16D08, symBinAddr: 0x10001941C, symSize: 0x370 }
  - { offsetInCU: 0x134D4, offset: 0x134D4, size: 0x8, addend: 0x0, symName: __ZNSt3__18_IterOpsINS_17_ClassicAlgPolicyEE11__iter_moveB7v160006IRNS_16reverse_iteratorIP5pointEEEENS_9enable_ifIXsr12is_referenceIDTdeclsr3stdE7declvalIRT_EEEEE5valueEDTclsr3stdE4movedeclsr3stdE7declvalISB_EEEEE4typeEOSA_, symObjAddr: 0x17CC4, symBinAddr: 0x10001A3D8, symSize: 0xB8 }
  - { offsetInCU: 0x13500, offset: 0x13500, size: 0x8, addend: 0x0, symName: __ZNKSt3__116reverse_iteratorIP5pointEdeB7v160006Ev, symObjAddr: 0x17D7C, symBinAddr: 0x10001A490, symSize: 0x184 }
  - { offsetInCU: 0x13533, offset: 0x13533, size: 0x8, addend: 0x0, symName: __ZNSt3__116reverse_iteratorIP5pointEppB7v160006Ev, symObjAddr: 0x17F00, symBinAddr: 0x10001A614, symSize: 0x1B0 }
  - { offsetInCU: 0x13558, offset: 0x13558, size: 0x8, addend: 0x0, symName: __ZNSt3__18_IterOpsINS_17_ClassicAlgPolicyEE25__validate_iter_referenceB7v160006IRNS_16reverse_iteratorIP5pointEEEEvv, symObjAddr: 0x180B0, symBinAddr: 0x10001A7C4, symSize: 0x4 }
  - { offsetInCU: 0x13576, offset: 0x13576, size: 0x8, addend: 0x0, symName: __ZNSt3__118__unwrap_iter_implINS_16reverse_iteratorIP5pointEELb0EE8__unwrapB7v160006ES4_, symObjAddr: 0x180B4, symBinAddr: 0x10001A7C8, symSize: 0x274 }
  - { offsetInCU: 0x135A2, offset: 0x135A2, size: 0x8, addend: 0x0, symName: __ZNSt3__14pairINS_16reverse_iteratorIP5pointEES4_EC1B7v160006IS4_S4_LPv0EEEOT_OT0_, symObjAddr: 0x18328, symBinAddr: 0x10001AA3C, symSize: 0x88 }
  - { offsetInCU: 0x135FF, offset: 0x135FF, size: 0x8, addend: 0x0, symName: __ZNSt3__14pairINS_16reverse_iteratorIP5pointEES4_EC2B7v160006IS4_S4_LPv0EEEOT_OT0_, symObjAddr: 0x183B0, symBinAddr: 0x10001AAC4, symSize: 0xA0 }
  - { offsetInCU: 0x1365C, offset: 0x1365C, size: 0x8, addend: 0x0, symName: __ZNSt3__118__unwrap_iter_implINS_16reverse_iteratorIP5pointEELb0EE8__rewrapB7v160006ES4_S4_, symObjAddr: 0x18450, symBinAddr: 0x10001AB64, symSize: 0x2E0 }
  - { offsetInCU: 0x13692, offset: 0x13692, size: 0x8, addend: 0x0, symName: __ZNSt3__116reverse_iteratorIP5pointEC2B7v160006ES2_, symObjAddr: 0x18730, symBinAddr: 0x10001AE44, symSize: 0x10C }
  - { offsetInCU: 0x136C9, offset: 0x136C9, size: 0x8, addend: 0x0, symName: __ZNSt3__114__split_bufferI5pointRNS_9allocatorIS1_EEED2Ev, symObjAddr: 0x1883C, symBinAddr: 0x10001AF50, symSize: 0x16C }
  - { offsetInCU: 0x136F4, offset: 0x136F4, size: 0x8, addend: 0x0, symName: __ZNSt3__114__split_bufferI5pointRNS_9allocatorIS1_EEE5clearB7v160006Ev, symObjAddr: 0x189A8, symBinAddr: 0x10001B0BC, symSize: 0xB4 }
  - { offsetInCU: 0x13719, offset: 0x13719, size: 0x8, addend: 0x0, symName: __ZNKSt3__114__split_bufferI5pointRNS_9allocatorIS1_EEE8capacityB7v160006Ev, symObjAddr: 0x18A5C, symBinAddr: 0x10001B170, symSize: 0x144 }
  - { offsetInCU: 0x1373E, offset: 0x1373E, size: 0x8, addend: 0x0, symName: __ZNSt3__114__split_bufferI5pointRNS_9allocatorIS1_EEE17__destruct_at_endB7v160006EPS1_, symObjAddr: 0x18BA0, symBinAddr: 0x10001B2B4, symSize: 0x74 }
  - { offsetInCU: 0x13770, offset: 0x13770, size: 0x8, addend: 0x0, symName: __ZNSt3__114__split_bufferI5pointRNS_9allocatorIS1_EEE17__destruct_at_endB7v160006EPS1_NS_17integral_constantIbLb0EEE, symObjAddr: 0x18C14, symBinAddr: 0x10001B328, symSize: 0x224 }
  - { offsetInCU: 0x137B0, offset: 0x137B0, size: 0x8, addend: 0x0, symName: __ZNKSt3__114__split_bufferI5pointRNS_9allocatorIS1_EEE9__end_capB7v160006Ev, symObjAddr: 0x18E38, symBinAddr: 0x10001B54C, symSize: 0x100 }
  - { offsetInCU: 0x137D5, offset: 0x137D5, size: 0x8, addend: 0x0, symName: __ZNKSt3__117__compressed_pairIP5pointRNS_9allocatorIS1_EEE5firstB7v160006Ev, symObjAddr: 0x18F38, symBinAddr: 0x10001B64C, symSize: 0x124 }
  - { offsetInCU: 0x137F9, offset: 0x137F9, size: 0x8, addend: 0x0, symName: __ZNSt3__16vectorINS0_INS0_I5pointNS_9allocatorIS1_EEEENS2_IS4_EEEENS2_IS6_EEE8__appendEm, symObjAddr: 0x1905C, symBinAddr: 0x10001B770, symSize: 0x4D0 }
  - { offsetInCU: 0x1385A, offset: 0x1385A, size: 0x8, addend: 0x0, symName: __ZNSt3__16vectorINS0_INS0_I5pointNS_9allocatorIS1_EEEENS2_IS4_EEEENS2_IS6_EEE17__destruct_at_endB7v160006EPS6_, symObjAddr: 0x1952C, symBinAddr: 0x10001BC40, symSize: 0xB0 }
  - { offsetInCU: 0x1389D, offset: 0x1389D, size: 0x8, addend: 0x0, symName: __ZNSt3__16vectorINS0_INS0_I5pointNS_9allocatorIS1_EEEENS2_IS4_EEEENS2_IS6_EEE9__end_capB7v160006Ev, symObjAddr: 0x195DC, symBinAddr: 0x10001BCF0, symSize: 0x100 }
  - { offsetInCU: 0x138C1, offset: 0x138C1, size: 0x8, addend: 0x0, symName: __ZNSt3__16vectorINS0_INS0_I5pointNS_9allocatorIS1_EEEENS2_IS4_EEEENS2_IS6_EEE18__construct_at_endEm, symObjAddr: 0x196DC, symBinAddr: 0x10001BDF0, symSize: 0x5A0 }
  - { offsetInCU: 0x1393A, offset: 0x1393A, size: 0x8, addend: 0x0, symName: __ZNKSt3__16vectorINS0_INS0_I5pointNS_9allocatorIS1_EEEENS2_IS4_EEEENS2_IS6_EEE11__recommendB7v160006Em, symObjAddr: 0x19C7C, symBinAddr: 0x10001C390, symSize: 0x45C }
  - { offsetInCU: 0x13995, offset: 0x13995, size: 0x8, addend: 0x0, symName: __ZNSt3__114__split_bufferINS_6vectorINS1_I5pointNS_9allocatorIS2_EEEENS3_IS5_EEEERNS3_IS7_EEEC1EmmS9_, symObjAddr: 0x1A0D8, symBinAddr: 0x10001C7EC, symSize: 0x90 }
  - { offsetInCU: 0x139EA, offset: 0x139EA, size: 0x8, addend: 0x0, symName: __ZNSt3__114__split_bufferINS_6vectorINS1_I5pointNS_9allocatorIS2_EEEENS3_IS5_EEEERNS3_IS7_EEE18__construct_at_endEm, symObjAddr: 0x1A168, symBinAddr: 0x10001C87C, symSize: 0x54C }
  - { offsetInCU: 0x13A32, offset: 0x13A32, size: 0x8, addend: 0x0, symName: __ZNSt3__114__split_bufferINS_6vectorINS1_I5pointNS_9allocatorIS2_EEEENS3_IS5_EEEERNS3_IS7_EEED1Ev, symObjAddr: 0x1AF18, symBinAddr: 0x10001D62C, symSize: 0x78 }
  - { offsetInCU: 0x13A5D, offset: 0x13A5D, size: 0x8, addend: 0x0, symName: __ZNSt3__117__compressed_pairIPNS_6vectorINS1_I5pointNS_9allocatorIS2_EEEENS3_IS5_EEEENS3_IS7_EEE5firstB7v160006Ev, symObjAddr: 0x1AF90, symBinAddr: 0x10001D6A4, symSize: 0x124 }
  - { offsetInCU: 0x13A82, offset: 0x13A82, size: 0x8, addend: 0x0, symName: __ZNSt3__122__compressed_pair_elemIPNS_6vectorINS1_I5pointNS_9allocatorIS2_EEEENS3_IS5_EEEELi0ELb0EE5__getB7v160006Ev, symObjAddr: 0x1B0B4, symBinAddr: 0x10001D7C8, symSize: 0xAC }
  - { offsetInCU: 0x13AC0, offset: 0x13AC0, size: 0x8, addend: 0x0, symName: __ZNSt3__16vectorINS0_INS0_I5pointNS_9allocatorIS1_EEEENS2_IS4_EEEENS2_IS6_EEE21_ConstructTransactionC1B7v160006ERS8_m, symObjAddr: 0x1B160, symBinAddr: 0x10001D874, symSize: 0x88 }
  - { offsetInCU: 0x13B07, offset: 0x13B07, size: 0x8, addend: 0x0, symName: __ZNSt3__116allocator_traitsINS_9allocatorINS_6vectorINS2_I5pointNS1_IS3_EEEENS1_IS5_EEEEEEE9constructB7v160006IS7_JEvEEvRS8_PT_DpOT0_, symObjAddr: 0x1B1E8, symBinAddr: 0x10001D8FC, symSize: 0x2C }
  - { offsetInCU: 0x13B49, offset: 0x13B49, size: 0x8, addend: 0x0, symName: __ZNSt3__16vectorINS0_INS0_I5pointNS_9allocatorIS1_EEEENS2_IS4_EEEENS2_IS6_EEE21_ConstructTransactionD1B7v160006Ev, symObjAddr: 0x1B214, symBinAddr: 0x10001D928, symSize: 0x78 }
  - { offsetInCU: 0x13B72, offset: 0x13B72, size: 0x8, addend: 0x0, symName: __ZNSt3__16vectorINS0_INS0_I5pointNS_9allocatorIS1_EEEENS2_IS4_EEEENS2_IS6_EEE21_ConstructTransactionC2B7v160006ERS8_m, symObjAddr: 0x1B28C, symBinAddr: 0x10001D9A0, symSize: 0x3E0 }
  - { offsetInCU: 0x13BB9, offset: 0x13BB9, size: 0x8, addend: 0x0, symName: __ZNKSt3__16vectorINS0_INS0_I5pointNS_9allocatorIS1_EEEENS2_IS4_EEEENS2_IS6_EEE19__annotate_increaseB7v160006Em, symObjAddr: 0x1B66C, symBinAddr: 0x10001DD80, symSize: 0x46C }
  - { offsetInCU: 0x13BED, offset: 0x13BED, size: 0x8, addend: 0x0, symName: __ZNSt3__19allocatorINS_6vectorINS1_I5pointNS0_IS2_EEEENS0_IS4_EEEEE9constructB7v160006IS6_JEEEvPT_DpOT0_, symObjAddr: 0x1BAD8, symBinAddr: 0x10001E1EC, symSize: 0x9C }
  - { offsetInCU: 0x13C2E, offset: 0x13C2E, size: 0x8, addend: 0x0, symName: __ZNSt3__16vectorINS0_I5pointNS_9allocatorIS1_EEEENS2_IS4_EEEC1B7v160006Ev, symObjAddr: 0x1BB74, symBinAddr: 0x10001E288, symSize: 0x78 }
  - { offsetInCU: 0x13C57, offset: 0x13C57, size: 0x8, addend: 0x0, symName: __ZNSt3__16vectorINS0_I5pointNS_9allocatorIS1_EEEENS2_IS4_EEEC2B7v160006Ev, symObjAddr: 0x1BBEC, symBinAddr: 0x10001E300, symSize: 0x34C }
  - { offsetInCU: 0x13C81, offset: 0x13C81, size: 0x8, addend: 0x0, symName: __ZNSt3__117__compressed_pairIPNS_6vectorI5pointNS_9allocatorIS2_EEEENS3_IS5_EEEC1B7v160006IDnNS_18__default_init_tagEEEOT_OT0_, symObjAddr: 0x1BF38, symBinAddr: 0x10001E64C, symSize: 0x88 }
  - { offsetInCU: 0x13CD8, offset: 0x13CD8, size: 0x8, addend: 0x0, symName: __ZNSt3__117__compressed_pairIPNS_6vectorI5pointNS_9allocatorIS2_EEEENS3_IS5_EEEC2B7v160006IDnNS_18__default_init_tagEEEOT_OT0_, symObjAddr: 0x1BFD0, symBinAddr: 0x10001E6E4, symSize: 0x140 }
  - { offsetInCU: 0x13D2F, offset: 0x13D2F, size: 0x8, addend: 0x0, symName: __ZNSt3__122__compressed_pair_elemIPNS_6vectorI5pointNS_9allocatorIS2_EEEELi0ELb0EEC2B7v160006IDnvEEOT_, symObjAddr: 0x1C110, symBinAddr: 0x10001E824, symSize: 0xBC }
  - { offsetInCU: 0x13D70, offset: 0x13D70, size: 0x8, addend: 0x0, symName: __ZNSt3__122__compressed_pair_elemINS_9allocatorINS_6vectorI5pointNS1_IS3_EEEEEELi1ELb1EEC2B7v160006ENS_18__default_init_tagE, symObjAddr: 0x1C1CC, symBinAddr: 0x10001E8E0, symSize: 0x84 }
  - { offsetInCU: 0x13DA4, offset: 0x13DA4, size: 0x8, addend: 0x0, symName: __ZNSt3__19allocatorINS_6vectorI5pointNS0_IS2_EEEEEC2B7v160006Ev, symObjAddr: 0x1C250, symBinAddr: 0x10001E964, symSize: 0x84 }
  - { offsetInCU: 0x13DCD, offset: 0x13DCD, size: 0x8, addend: 0x0, symName: __ZNSt3__116__non_trivial_ifILb1ENS_9allocatorINS_6vectorI5pointNS1_IS3_EEEEEEEC2B7v160006Ev, symObjAddr: 0x1C2D4, symBinAddr: 0x10001E9E8, symSize: 0x54 }
  - { offsetInCU: 0x13DF6, offset: 0x13DF6, size: 0x8, addend: 0x0, symName: __ZNSt3__16vectorINS0_INS0_I5pointNS_9allocatorIS1_EEEENS2_IS4_EEEENS2_IS6_EEE21_ConstructTransactionD2B7v160006Ev, symObjAddr: 0x1C328, symBinAddr: 0x10001EA3C, symSize: 0x390 }
  - { offsetInCU: 0x13E1F, offset: 0x13E1F, size: 0x8, addend: 0x0, symName: __ZNKSt3__16vectorINS0_INS0_I5pointNS_9allocatorIS1_EEEENS2_IS4_EEEENS2_IS6_EEE17__annotate_shrinkB7v160006Em, symObjAddr: 0x1C6B8, symBinAddr: 0x10001EDCC, symSize: 0x378 }
  - { offsetInCU: 0x13E52, offset: 0x13E52, size: 0x8, addend: 0x0, symName: __ZNKSt3__16vectorINS0_INS0_I5pointNS_9allocatorIS1_EEEENS2_IS4_EEEENS2_IS6_EEE8max_sizeEv, symObjAddr: 0x1CA30, symBinAddr: 0x10001F144, symSize: 0x3B8 }
  - { offsetInCU: 0x13E7A, offset: 0x13E7A, size: 0x8, addend: 0x0, symName: __ZNKSt3__16vectorINS0_INS0_I5pointNS_9allocatorIS1_EEEENS2_IS4_EEEENS2_IS6_EEE20__throw_length_errorB7v160006Ev, symObjAddr: 0x1CDE8, symBinAddr: 0x10001F4FC, symSize: 0x80 }
  - { offsetInCU: 0x13EA9, offset: 0x13EA9, size: 0x8, addend: 0x0, symName: __ZNSt3__116allocator_traitsINS_9allocatorINS_6vectorINS2_I5pointNS1_IS3_EEEENS1_IS5_EEEEEEE8max_sizeB7v160006IS8_vEEmRKS8_, symObjAddr: 0x1CE68, symBinAddr: 0x10001F57C, symSize: 0x24 }
  - { offsetInCU: 0x13ED7, offset: 0x13ED7, size: 0x8, addend: 0x0, symName: __ZNKSt3__16vectorINS0_INS0_I5pointNS_9allocatorIS1_EEEENS2_IS4_EEEENS2_IS6_EEE7__allocB7v160006Ev, symObjAddr: 0x1CE8C, symBinAddr: 0x10001F5A0, symSize: 0xE4 }
  - { offsetInCU: 0x13EFC, offset: 0x13EFC, size: 0x8, addend: 0x0, symName: __ZNKSt3__19allocatorINS_6vectorINS1_I5pointNS0_IS2_EEEENS0_IS4_EEEEE8max_sizeB7v160006Ev, symObjAddr: 0x1CF70, symBinAddr: 0x10001F684, symSize: 0x50 }
  - { offsetInCU: 0x13F21, offset: 0x13F21, size: 0x8, addend: 0x0, symName: __ZNKSt3__117__compressed_pairIPNS_6vectorINS1_I5pointNS_9allocatorIS2_EEEENS3_IS5_EEEENS3_IS7_EEE6secondB7v160006Ev, symObjAddr: 0x1CFC0, symBinAddr: 0x10001F6D4, symSize: 0x108 }
  - { offsetInCU: 0x13F46, offset: 0x13F46, size: 0x8, addend: 0x0, symName: __ZNKSt3__122__compressed_pair_elemINS_9allocatorINS_6vectorINS2_I5pointNS1_IS3_EEEENS1_IS5_EEEEEELi1ELb1EE5__getB7v160006Ev, symObjAddr: 0x1D0C8, symBinAddr: 0x10001F7DC, symSize: 0x74 }
  - { offsetInCU: 0x13F6B, offset: 0x13F6B, size: 0x8, addend: 0x0, symName: __ZNSt3__114__split_bufferINS_6vectorINS1_I5pointNS_9allocatorIS2_EEEENS3_IS5_EEEERNS3_IS7_EEEC2EmmS9_, symObjAddr: 0x1D13C, symBinAddr: 0x10001F850, symSize: 0x7E8 }
  - { offsetInCU: 0x13FE6, offset: 0x13FE6, size: 0x8, addend: 0x0, symName: __ZNSt3__117__compressed_pairIPNS_6vectorINS1_I5pointNS_9allocatorIS2_EEEENS3_IS5_EEEERNS3_IS7_EEEC1B7v160006IDnSA_EEOT_OT0_, symObjAddr: 0x1D924, symBinAddr: 0x100020038, symSize: 0x88 }
  - { offsetInCU: 0x1403D, offset: 0x1403D, size: 0x8, addend: 0x0, symName: __ZNSt3__114__split_bufferINS_6vectorINS1_I5pointNS_9allocatorIS2_EEEENS3_IS5_EEEERNS3_IS7_EEE7__allocB7v160006Ev, symObjAddr: 0x1DC38, symBinAddr: 0x10002034C, symSize: 0xE4 }
  - { offsetInCU: 0x14062, offset: 0x14062, size: 0x8, addend: 0x0, symName: __ZNSt3__114__split_bufferINS_6vectorINS1_I5pointNS_9allocatorIS2_EEEENS3_IS5_EEEERNS3_IS7_EEE9__end_capB7v160006Ev, symObjAddr: 0x1DD1C, symBinAddr: 0x100020430, symSize: 0x100 }
  - { offsetInCU: 0x14087, offset: 0x14087, size: 0x8, addend: 0x0, symName: __ZNSt3__117__compressed_pairIPNS_6vectorINS1_I5pointNS_9allocatorIS2_EEEENS3_IS5_EEEERNS3_IS7_EEEC2B7v160006IDnSA_EEOT_OT0_, symObjAddr: 0x1DE1C, symBinAddr: 0x100020530, symSize: 0x198 }
  - { offsetInCU: 0x140DE, offset: 0x140DE, size: 0x8, addend: 0x0, symName: __ZNSt3__122__compressed_pair_elemIRNS_9allocatorINS_6vectorINS2_I5pointNS1_IS3_EEEENS1_IS5_EEEEEELi1ELb0EEC2B7v160006IS9_vEEOT_, symObjAddr: 0x1DFB4, symBinAddr: 0x1000206C8, symSize: 0xEC }
  - { offsetInCU: 0x1411F, offset: 0x1411F, size: 0x8, addend: 0x0, symName: __ZNSt3__19allocatorINS_6vectorINS1_I5pointNS0_IS2_EEEENS0_IS4_EEEEE8allocateB7v160006Em, symObjAddr: 0x1E0A0, symBinAddr: 0x1000207B4, symSize: 0xD0 }
  - { offsetInCU: 0x14152, offset: 0x14152, size: 0x8, addend: 0x0, symName: __ZNSt3__117__compressed_pairIPNS_6vectorINS1_I5pointNS_9allocatorIS2_EEEENS3_IS5_EEEERNS3_IS7_EEE6secondB7v160006Ev, symObjAddr: 0x1E170, symBinAddr: 0x100020884, symSize: 0x110 }
  - { offsetInCU: 0x14177, offset: 0x14177, size: 0x8, addend: 0x0, symName: __ZNSt3__122__compressed_pair_elemIRNS_9allocatorINS_6vectorINS2_I5pointNS1_IS3_EEEENS1_IS5_EEEEEELi1ELb0EE5__getB7v160006Ev, symObjAddr: 0x1E280, symBinAddr: 0x100020994, symSize: 0xD8 }
  - { offsetInCU: 0x1419C, offset: 0x1419C, size: 0x8, addend: 0x0, symName: __ZNSt3__117__compressed_pairIPNS_6vectorINS1_I5pointNS_9allocatorIS2_EEEENS3_IS5_EEEERNS3_IS7_EEE5firstB7v160006Ev, symObjAddr: 0x1E358, symBinAddr: 0x100020A6C, symSize: 0x124 }
  - { offsetInCU: 0x141CB, offset: 0x141CB, size: 0x8, addend: 0x0, symName: __ZNSt3__114__split_bufferINS_6vectorINS1_I5pointNS_9allocatorIS2_EEEENS3_IS5_EEEERNS3_IS7_EEE21_ConstructTransactionC1B7v160006EPPS7_m, symObjAddr: 0x1E47C, symBinAddr: 0x100020B90, symSize: 0x88 }
  - { offsetInCU: 0x14210, offset: 0x14210, size: 0x8, addend: 0x0, symName: __ZNSt3__114__split_bufferINS_6vectorINS1_I5pointNS_9allocatorIS2_EEEENS3_IS5_EEEERNS3_IS7_EEE21_ConstructTransactionD1B7v160006Ev, symObjAddr: 0x1E504, symBinAddr: 0x100020C18, symSize: 0x78 }
  - { offsetInCU: 0x14239, offset: 0x14239, size: 0x8, addend: 0x0, symName: __ZNSt3__114__split_bufferINS_6vectorINS1_I5pointNS_9allocatorIS2_EEEENS3_IS5_EEEERNS3_IS7_EEE21_ConstructTransactionC2B7v160006EPPS7_m, symObjAddr: 0x1E57C, symBinAddr: 0x100020C90, symSize: 0x32C }
  - { offsetInCU: 0x1427E, offset: 0x1427E, size: 0x8, addend: 0x0, symName: __ZNSt3__114__split_bufferINS_6vectorINS1_I5pointNS_9allocatorIS2_EEEENS3_IS5_EEEERNS3_IS7_EEE21_ConstructTransactionD2B7v160006Ev, symObjAddr: 0x1E8A8, symBinAddr: 0x100020FBC, symSize: 0x174 }
  - { offsetInCU: 0x142A7, offset: 0x142A7, size: 0x8, addend: 0x0, symName: __ZNSt3__116reverse_iteratorIPNS_6vectorINS1_I5pointNS_9allocatorIS2_EEEENS3_IS5_EEEEEC1B7v160006ES8_, symObjAddr: 0x1EFF4, symBinAddr: 0x100021708, symSize: 0x80 }
  - { offsetInCU: 0x142DE, offset: 0x142DE, size: 0x8, addend: 0x0, symName: __ZNKSt3__116reverse_iteratorIPNS_6vectorINS1_I5pointNS_9allocatorIS2_EEEENS3_IS5_EEEEE4baseB7v160006Ev, symObjAddr: 0x1F074, symBinAddr: 0x100021788, symSize: 0xB0 }
  - { offsetInCU: 0x14303, offset: 0x14303, size: 0x8, addend: 0x0, symName: __ZNKSt3__16vectorINS0_INS0_I5pointNS_9allocatorIS1_EEEENS2_IS4_EEEENS2_IS6_EEE14__annotate_newB7v160006Em, symObjAddr: 0x1F2E4, symBinAddr: 0x1000219F8, symSize: 0x378 }
  - { offsetInCU: 0x14337, offset: 0x14337, size: 0x8, addend: 0x0, symName: __ZNSt3__129_AllocatorDestroyRangeReverseINS_9allocatorINS_6vectorINS2_I5pointNS1_IS3_EEEENS1_IS5_EEEEEENS_16reverse_iteratorIPS7_EEEC1B7v160006ERS8_RSB_SE_, symObjAddr: 0x1F8A8, symBinAddr: 0x100021FBC, symSize: 0x90 }
  - { offsetInCU: 0x1438D, offset: 0x1438D, size: 0x8, addend: 0x0, symName: __ZNSt3__116allocator_traitsINS_9allocatorINS_6vectorINS2_I5pointNS1_IS3_EEEENS1_IS5_EEEEEEE9constructB7v160006IS7_JS7_EvEEvRS8_PT_DpOT0_, symObjAddr: 0x1F9D4, symBinAddr: 0x1000220E8, symSize: 0x8C }
  - { offsetInCU: 0x143E4, offset: 0x143E4, size: 0x8, addend: 0x0, symName: __ZNKSt3__116reverse_iteratorIPNS_6vectorINS1_I5pointNS_9allocatorIS2_EEEENS3_IS5_EEEEEdeB7v160006Ev, symObjAddr: 0x1FACC, symBinAddr: 0x1000221E0, symSize: 0x184 }
  - { offsetInCU: 0x14417, offset: 0x14417, size: 0x8, addend: 0x0, symName: __ZNSt3__116reverse_iteratorIPNS_6vectorINS1_I5pointNS_9allocatorIS2_EEEENS3_IS5_EEEEEppB7v160006Ev, symObjAddr: 0x1FC50, symBinAddr: 0x100022364, symSize: 0x1B0 }
  - { offsetInCU: 0x1443C, offset: 0x1443C, size: 0x8, addend: 0x0, symName: __ZNSt3__128__exception_guard_exceptionsINS_29_AllocatorDestroyRangeReverseINS_9allocatorINS_6vectorINS3_I5pointNS2_IS4_EEEENS2_IS6_EEEEEENS_16reverse_iteratorIPS8_EEEEE10__completeB7v160006Ev, symObjAddr: 0x1FE00, symBinAddr: 0x100022514, symSize: 0xD8 }
  - { offsetInCU: 0x14461, offset: 0x14461, size: 0x8, addend: 0x0, symName: __ZNSt3__128__exception_guard_exceptionsINS_29_AllocatorDestroyRangeReverseINS_9allocatorINS_6vectorINS3_I5pointNS2_IS4_EEEENS2_IS6_EEEEEENS_16reverse_iteratorIPS8_EEEEED1B7v160006Ev, symObjAddr: 0x1FED8, symBinAddr: 0x1000225EC, symSize: 0x78 }
  - { offsetInCU: 0x1448A, offset: 0x1448A, size: 0x8, addend: 0x0, symName: __ZNSt3__128__exception_guard_exceptionsINS_29_AllocatorDestroyRangeReverseINS_9allocatorINS_6vectorINS3_I5pointNS2_IS4_EEEENS2_IS6_EEEEEENS_16reverse_iteratorIPS8_EEEEEC1B7v160006ESD_, symObjAddr: 0x1FF50, symBinAddr: 0x100022664, symSize: 0x84 }
  - { offsetInCU: 0x144C2, offset: 0x144C2, size: 0x8, addend: 0x0, symName: __ZNSt3__128__exception_guard_exceptionsINS_29_AllocatorDestroyRangeReverseINS_9allocatorINS_6vectorINS3_I5pointNS2_IS4_EEEENS2_IS6_EEEEEENS_16reverse_iteratorIPS8_EEEEEC2B7v160006ESD_, symObjAddr: 0x1FFD4, symBinAddr: 0x1000226E8, symSize: 0xF8 }
  - { offsetInCU: 0x144FA, offset: 0x144FA, size: 0x8, addend: 0x0, symName: __ZNSt3__129_AllocatorDestroyRangeReverseINS_9allocatorINS_6vectorINS2_I5pointNS1_IS3_EEEENS1_IS5_EEEEEENS_16reverse_iteratorIPS7_EEEC2B7v160006ERS8_RSB_SE_, symObjAddr: 0x200CC, symBinAddr: 0x1000227E0, symSize: 0x20C }
  - { offsetInCU: 0x14550, offset: 0x14550, size: 0x8, addend: 0x0, symName: __ZNSt3__19allocatorINS_6vectorINS1_I5pointNS0_IS2_EEEENS0_IS4_EEEEE9constructB7v160006IS6_JS6_EEEvPT_DpOT0_, symObjAddr: 0x202D8, symBinAddr: 0x1000229EC, symSize: 0xEC }
  - { offsetInCU: 0x145A5, offset: 0x145A5, size: 0x8, addend: 0x0, symName: __ZNSt3__16vectorINS0_I5pointNS_9allocatorIS1_EEEENS2_IS4_EEEC1B7v160006EOS6_, symObjAddr: 0x203C4, symBinAddr: 0x100022AD8, symSize: 0x80 }
  - { offsetInCU: 0x145DF, offset: 0x145DF, size: 0x8, addend: 0x0, symName: __ZNSt3__16vectorINS0_I5pointNS_9allocatorIS1_EEEENS2_IS4_EEEC2B7v160006EOS6_, symObjAddr: 0x20444, symBinAddr: 0x100022B58, symSize: 0x794 }
  - { offsetInCU: 0x14620, offset: 0x14620, size: 0x8, addend: 0x0, symName: __ZNSt3__117__compressed_pairIPNS_6vectorI5pointNS_9allocatorIS2_EEEENS3_IS5_EEEC1B7v160006IDnS7_EEOT_OT0_, symObjAddr: 0x20BD8, symBinAddr: 0x1000232EC, symSize: 0x88 }
  - { offsetInCU: 0x14677, offset: 0x14677, size: 0x8, addend: 0x0, symName: __ZNSt3__16vectorINS0_I5pointNS_9allocatorIS1_EEEENS2_IS4_EEE9__end_capB7v160006Ev, symObjAddr: 0x20C74, symBinAddr: 0x100023388, symSize: 0x100 }
  - { offsetInCU: 0x1469C, offset: 0x1469C, size: 0x8, addend: 0x0, symName: __ZNSt3__117__compressed_pairIPNS_6vectorI5pointNS_9allocatorIS2_EEEENS3_IS5_EEEC2B7v160006IDnS7_EEOT_OT0_, symObjAddr: 0x20D74, symBinAddr: 0x100023488, symSize: 0x170 }
  - { offsetInCU: 0x146F3, offset: 0x146F3, size: 0x8, addend: 0x0, symName: __ZNSt3__122__compressed_pair_elemINS_9allocatorINS_6vectorI5pointNS1_IS3_EEEEEELi1ELb1EEC2B7v160006IS6_vEEOT_, symObjAddr: 0x20EE4, symBinAddr: 0x1000235F8, symSize: 0x58 }
  - { offsetInCU: 0x14734, offset: 0x14734, size: 0x8, addend: 0x0, symName: __ZNSt3__117__compressed_pairIPNS_6vectorI5pointNS_9allocatorIS2_EEEENS3_IS5_EEE5firstB7v160006Ev, symObjAddr: 0x20F3C, symBinAddr: 0x100023650, symSize: 0x124 }
  - { offsetInCU: 0x14759, offset: 0x14759, size: 0x8, addend: 0x0, symName: __ZNSt3__122__compressed_pair_elemIPNS_6vectorI5pointNS_9allocatorIS2_EEEELi0ELb0EE5__getB7v160006Ev, symObjAddr: 0x21060, symBinAddr: 0x100023774, symSize: 0xAC }
  - { offsetInCU: 0x14783, offset: 0x14783, size: 0x8, addend: 0x0, symName: __ZNSt3__119__to_address_helperINS_16reverse_iteratorIPNS_6vectorINS2_I5pointNS_9allocatorIS3_EEEENS4_IS6_EEEEEEvE6__callB7v160006ERKSA_, symObjAddr: 0x2110C, symBinAddr: 0x100023820, symSize: 0x70 }
  - { offsetInCU: 0x147A6, offset: 0x147A6, size: 0x8, addend: 0x0, symName: __ZNKSt3__116reverse_iteratorIPNS_6vectorINS1_I5pointNS_9allocatorIS2_EEEENS3_IS5_EEEEEptB7v160006Ev, symObjAddr: 0x2117C, symBinAddr: 0x100023890, symSize: 0x6C }
  - { offsetInCU: 0x147CB, offset: 0x147CB, size: 0x8, addend: 0x0, symName: __ZNSt3__128__exception_guard_exceptionsINS_29_AllocatorDestroyRangeReverseINS_9allocatorINS_6vectorINS3_I5pointNS2_IS4_EEEENS2_IS6_EEEEEENS_16reverse_iteratorIPS8_EEEEED2B7v160006Ev, symObjAddr: 0x211E8, symBinAddr: 0x1000238FC, symSize: 0x17C }
  - { offsetInCU: 0x147F4, offset: 0x147F4, size: 0x8, addend: 0x0, symName: __ZNKSt3__129_AllocatorDestroyRangeReverseINS_9allocatorINS_6vectorINS2_I5pointNS1_IS3_EEEENS1_IS5_EEEEEENS_16reverse_iteratorIPS7_EEEclB7v160006Ev, symObjAddr: 0x21364, symBinAddr: 0x100023A78, symSize: 0x418 }
  - { offsetInCU: 0x1481A, offset: 0x1481A, size: 0x8, addend: 0x0, symName: __ZNSt3__116reverse_iteratorINS0_IPNS_6vectorINS1_I5pointNS_9allocatorIS2_EEEENS3_IS5_EEEEEEEC1B7v160006ES9_, symObjAddr: 0x21920, symBinAddr: 0x100024034, symSize: 0x29C }
  - { offsetInCU: 0x14856, offset: 0x14856, size: 0x8, addend: 0x0, symName: __ZNSt3__116reverse_iteratorINS0_IPNS_6vectorINS1_I5pointNS_9allocatorIS2_EEEENS3_IS5_EEEEEEEppB7v160006Ev, symObjAddr: 0x21F4C, symBinAddr: 0x100024660, symSize: 0x100 }
  - { offsetInCU: 0x1487B, offset: 0x1487B, size: 0x8, addend: 0x0, symName: __ZNKSt3__116reverse_iteratorINS0_IPNS_6vectorINS1_I5pointNS_9allocatorIS2_EEEENS3_IS5_EEEEEEE4baseB7v160006Ev, symObjAddr: 0x2204C, symBinAddr: 0x100024760, symSize: 0x258 }
  - { offsetInCU: 0x148A6, offset: 0x148A6, size: 0x8, addend: 0x0, symName: __ZNSt3__119__to_address_helperINS_16reverse_iteratorINS1_IPNS_6vectorINS2_I5pointNS_9allocatorIS3_EEEENS4_IS6_EEEEEEEEvE6__callB7v160006ERKSB_, symObjAddr: 0x222A4, symBinAddr: 0x1000249B8, symSize: 0x70 }
  - { offsetInCU: 0x148C9, offset: 0x148C9, size: 0x8, addend: 0x0, symName: __ZNKSt3__116reverse_iteratorINS0_IPNS_6vectorINS1_I5pointNS_9allocatorIS2_EEEENS3_IS5_EEEEEEEptB7v160006Ev, symObjAddr: 0x22314, symBinAddr: 0x100024A28, symSize: 0x6C }
  - { offsetInCU: 0x148EE, offset: 0x148EE, size: 0x8, addend: 0x0, symName: __ZNKSt3__116reverse_iteratorINS0_IPNS_6vectorINS1_I5pointNS_9allocatorIS2_EEEENS3_IS5_EEEEEEEdeB7v160006Ev, symObjAddr: 0x22380, symBinAddr: 0x100024A94, symSize: 0x2C4 }
  - { offsetInCU: 0x14926, offset: 0x14926, size: 0x8, addend: 0x0, symName: __ZNSt3__116reverse_iteratorIPNS_6vectorINS1_I5pointNS_9allocatorIS2_EEEENS3_IS5_EEEEEmmB7v160006Ev, symObjAddr: 0x22644, symBinAddr: 0x100024D58, symSize: 0x1B0 }
  - { offsetInCU: 0x1494B, offset: 0x1494B, size: 0x8, addend: 0x0, symName: __ZNSt3__116reverse_iteratorINS0_IPNS_6vectorINS1_I5pointNS_9allocatorIS2_EEEENS3_IS5_EEEEEEEC2B7v160006ES9_, symObjAddr: 0x227F4, symBinAddr: 0x100024F08, symSize: 0x284 }
  - { offsetInCU: 0x14987, offset: 0x14987, size: 0x8, addend: 0x0, symName: __ZNSt3__116reverse_iteratorIPNS_6vectorINS1_I5pointNS_9allocatorIS2_EEEENS3_IS5_EEEEEC2B7v160006ES8_, symObjAddr: 0x22A78, symBinAddr: 0x10002518C, symSize: 0x10C }
  - { offsetInCU: 0x149BE, offset: 0x149BE, size: 0x8, addend: 0x0, symName: __ZNSt3__114__split_bufferINS_6vectorINS1_I5pointNS_9allocatorIS2_EEEENS3_IS5_EEEERNS3_IS7_EEED2Ev, symObjAddr: 0x22B84, symBinAddr: 0x100025298, symSize: 0x16C }
  - { offsetInCU: 0x149E9, offset: 0x149E9, size: 0x8, addend: 0x0, symName: __ZNSt3__114__split_bufferINS_6vectorINS1_I5pointNS_9allocatorIS2_EEEENS3_IS5_EEEERNS3_IS7_EEE5clearB7v160006Ev, symObjAddr: 0x22CF0, symBinAddr: 0x100025404, symSize: 0xB4 }
  - { offsetInCU: 0x14A0E, offset: 0x14A0E, size: 0x8, addend: 0x0, symName: __ZNKSt3__114__split_bufferINS_6vectorINS1_I5pointNS_9allocatorIS2_EEEENS3_IS5_EEEERNS3_IS7_EEE8capacityB7v160006Ev, symObjAddr: 0x22DA4, symBinAddr: 0x1000254B8, symSize: 0x144 }
  - { offsetInCU: 0x14A33, offset: 0x14A33, size: 0x8, addend: 0x0, symName: __ZNSt3__114__split_bufferINS_6vectorINS1_I5pointNS_9allocatorIS2_EEEENS3_IS5_EEEERNS3_IS7_EEE17__destruct_at_endB7v160006EPS7_, symObjAddr: 0x22EE8, symBinAddr: 0x1000255FC, symSize: 0x74 }
  - { offsetInCU: 0x14A65, offset: 0x14A65, size: 0x8, addend: 0x0, symName: __ZNSt3__114__split_bufferINS_6vectorINS1_I5pointNS_9allocatorIS2_EEEENS3_IS5_EEEERNS3_IS7_EEE17__destruct_at_endB7v160006EPS7_NS_17integral_constantIbLb0EEE, symObjAddr: 0x22F5C, symBinAddr: 0x100025670, symSize: 0x224 }
  - { offsetInCU: 0x14AA5, offset: 0x14AA5, size: 0x8, addend: 0x0, symName: __ZNKSt3__114__split_bufferINS_6vectorINS1_I5pointNS_9allocatorIS2_EEEENS3_IS5_EEEERNS3_IS7_EEE9__end_capB7v160006Ev, symObjAddr: 0x23180, symBinAddr: 0x100025894, symSize: 0x100 }
  - { offsetInCU: 0x14ACA, offset: 0x14ACA, size: 0x8, addend: 0x0, symName: __ZNKSt3__117__compressed_pairIPNS_6vectorINS1_I5pointNS_9allocatorIS2_EEEENS3_IS5_EEEERNS3_IS7_EEE5firstB7v160006Ev, symObjAddr: 0x23280, symBinAddr: 0x100025994, symSize: 0x124 }
  - { offsetInCU: 0x14AEE, offset: 0x14AEE, size: 0x8, addend: 0x0, symName: __ZNSt3__16vectorINS0_INS0_I5pointNS_9allocatorIS1_EEEENS2_IS4_EEEENS2_IS6_EEE27__invalidate_iterators_pastB7v160006EPS6_, symObjAddr: 0x233A4, symBinAddr: 0x100025AB8, symSize: 0x64 }
  - { offsetInCU: 0x14B23, offset: 0x14B23, size: 0x8, addend: 0x0, symName: __ZNSt3__16vectorINS0_I5pointNS_9allocatorIS1_EEEENS2_IS4_EEE8__appendEm, symObjAddr: 0x23408, symBinAddr: 0x100025B1C, symSize: 0x4D0 }
  - { offsetInCU: 0x14B84, offset: 0x14B84, size: 0x8, addend: 0x0, symName: __ZNSt3__16vectorINS0_I5pointNS_9allocatorIS1_EEEENS2_IS4_EEE17__destruct_at_endB7v160006EPS4_, symObjAddr: 0x238D8, symBinAddr: 0x100025FEC, symSize: 0xB0 }
  - { offsetInCU: 0x14BC6, offset: 0x14BC6, size: 0x8, addend: 0x0, symName: __ZNSt3__16vectorINS0_I5pointNS_9allocatorIS1_EEEENS2_IS4_EEE18__construct_at_endEm, symObjAddr: 0x23988, symBinAddr: 0x10002609C, symSize: 0x5A0 }
  - { offsetInCU: 0x14C3F, offset: 0x14C3F, size: 0x8, addend: 0x0, symName: __ZNKSt3__16vectorINS0_I5pointNS_9allocatorIS1_EEEENS2_IS4_EEE11__recommendB7v160006Em, symObjAddr: 0x23F28, symBinAddr: 0x10002663C, symSize: 0x45C }
  - { offsetInCU: 0x14C9A, offset: 0x14C9A, size: 0x8, addend: 0x0, symName: __ZNSt3__114__split_bufferINS_6vectorI5pointNS_9allocatorIS2_EEEERNS3_IS5_EEEC1EmmS7_, symObjAddr: 0x24384, symBinAddr: 0x100026A98, symSize: 0x90 }
  - { offsetInCU: 0x14CEF, offset: 0x14CEF, size: 0x8, addend: 0x0, symName: __ZNSt3__114__split_bufferINS_6vectorI5pointNS_9allocatorIS2_EEEERNS3_IS5_EEE18__construct_at_endEm, symObjAddr: 0x24414, symBinAddr: 0x100026B28, symSize: 0x54C }
  - { offsetInCU: 0x14D37, offset: 0x14D37, size: 0x8, addend: 0x0, symName: __ZNSt3__114__split_bufferINS_6vectorI5pointNS_9allocatorIS2_EEEERNS3_IS5_EEED1Ev, symObjAddr: 0x251C4, symBinAddr: 0x1000278D8, symSize: 0x78 }
  - { offsetInCU: 0x14D7B, offset: 0x14D7B, size: 0x8, addend: 0x0, symName: __ZNSt3__16vectorINS0_I5pointNS_9allocatorIS1_EEEENS2_IS4_EEE21_ConstructTransactionC1B7v160006ERS6_m, symObjAddr: 0x2523C, symBinAddr: 0x100027950, symSize: 0x88 }
  - { offsetInCU: 0x14DC2, offset: 0x14DC2, size: 0x8, addend: 0x0, symName: __ZNSt3__116allocator_traitsINS_9allocatorINS_6vectorI5pointNS1_IS3_EEEEEEE9constructB7v160006IS5_JEvEEvRS6_PT_DpOT0_, symObjAddr: 0x252C4, symBinAddr: 0x1000279D8, symSize: 0x2C }
  - { offsetInCU: 0x14E04, offset: 0x14E04, size: 0x8, addend: 0x0, symName: __ZNSt3__16vectorINS0_I5pointNS_9allocatorIS1_EEEENS2_IS4_EEE21_ConstructTransactionD1B7v160006Ev, symObjAddr: 0x252F0, symBinAddr: 0x100027A04, symSize: 0x78 }
  - { offsetInCU: 0x14E2D, offset: 0x14E2D, size: 0x8, addend: 0x0, symName: __ZNSt3__16vectorINS0_I5pointNS_9allocatorIS1_EEEENS2_IS4_EEE21_ConstructTransactionC2B7v160006ERS6_m, symObjAddr: 0x25368, symBinAddr: 0x100027A7C, symSize: 0x3E0 }
  - { offsetInCU: 0x14E74, offset: 0x14E74, size: 0x8, addend: 0x0, symName: __ZNKSt3__16vectorINS0_I5pointNS_9allocatorIS1_EEEENS2_IS4_EEE19__annotate_increaseB7v160006Em, symObjAddr: 0x25748, symBinAddr: 0x100027E5C, symSize: 0x46C }
  - { offsetInCU: 0x14EA8, offset: 0x14EA8, size: 0x8, addend: 0x0, symName: __ZNSt3__19allocatorINS_6vectorI5pointNS0_IS2_EEEEE9constructB7v160006IS4_JEEEvPT_DpOT0_, symObjAddr: 0x25BB4, symBinAddr: 0x1000282C8, symSize: 0x9C }
  - { offsetInCU: 0x14EE9, offset: 0x14EE9, size: 0x8, addend: 0x0, symName: __ZNSt3__16vectorINS0_I5pointNS_9allocatorIS1_EEEENS2_IS4_EEE21_ConstructTransactionD2B7v160006Ev, symObjAddr: 0x25C50, symBinAddr: 0x100028364, symSize: 0x390 }
  - { offsetInCU: 0x14F12, offset: 0x14F12, size: 0x8, addend: 0x0, symName: __ZNKSt3__16vectorINS0_I5pointNS_9allocatorIS1_EEEENS2_IS4_EEE17__annotate_shrinkB7v160006Em, symObjAddr: 0x25FE0, symBinAddr: 0x1000286F4, symSize: 0x378 }
  - { offsetInCU: 0x14F45, offset: 0x14F45, size: 0x8, addend: 0x0, symName: __ZNKSt3__16vectorINS0_I5pointNS_9allocatorIS1_EEEENS2_IS4_EEE8max_sizeEv, symObjAddr: 0x26358, symBinAddr: 0x100028A6C, symSize: 0x3B8 }
  - { offsetInCU: 0x14F6D, offset: 0x14F6D, size: 0x8, addend: 0x0, symName: __ZNKSt3__16vectorINS0_I5pointNS_9allocatorIS1_EEEENS2_IS4_EEE20__throw_length_errorB7v160006Ev, symObjAddr: 0x26710, symBinAddr: 0x100028E24, symSize: 0x80 }
  - { offsetInCU: 0x14F9C, offset: 0x14F9C, size: 0x8, addend: 0x0, symName: __ZNSt3__116allocator_traitsINS_9allocatorINS_6vectorI5pointNS1_IS3_EEEEEEE8max_sizeB7v160006IS6_vEEmRKS6_, symObjAddr: 0x26790, symBinAddr: 0x100028EA4, symSize: 0x24 }
  - { offsetInCU: 0x14FCA, offset: 0x14FCA, size: 0x8, addend: 0x0, symName: __ZNKSt3__16vectorINS0_I5pointNS_9allocatorIS1_EEEENS2_IS4_EEE7__allocB7v160006Ev, symObjAddr: 0x267B4, symBinAddr: 0x100028EC8, symSize: 0xE4 }
  - { offsetInCU: 0x14FEF, offset: 0x14FEF, size: 0x8, addend: 0x0, symName: __ZNKSt3__19allocatorINS_6vectorI5pointNS0_IS2_EEEEE8max_sizeB7v160006Ev, symObjAddr: 0x26898, symBinAddr: 0x100028FAC, symSize: 0x50 }
  - { offsetInCU: 0x15014, offset: 0x15014, size: 0x8, addend: 0x0, symName: __ZNKSt3__117__compressed_pairIPNS_6vectorI5pointNS_9allocatorIS2_EEEENS3_IS5_EEE6secondB7v160006Ev, symObjAddr: 0x268E8, symBinAddr: 0x100028FFC, symSize: 0x108 }
  - { offsetInCU: 0x15039, offset: 0x15039, size: 0x8, addend: 0x0, symName: __ZNKSt3__122__compressed_pair_elemINS_9allocatorINS_6vectorI5pointNS1_IS3_EEEEEELi1ELb1EE5__getB7v160006Ev, symObjAddr: 0x269F0, symBinAddr: 0x100029104, symSize: 0x74 }
  - { offsetInCU: 0x1505E, offset: 0x1505E, size: 0x8, addend: 0x0, symName: __ZNSt3__114__split_bufferINS_6vectorI5pointNS_9allocatorIS2_EEEERNS3_IS5_EEEC2EmmS7_, symObjAddr: 0x26A64, symBinAddr: 0x100029178, symSize: 0x7E8 }
  - { offsetInCU: 0x150D9, offset: 0x150D9, size: 0x8, addend: 0x0, symName: __ZNSt3__117__compressed_pairIPNS_6vectorI5pointNS_9allocatorIS2_EEEERNS3_IS5_EEEC1B7v160006IDnS8_EEOT_OT0_, symObjAddr: 0x2724C, symBinAddr: 0x100029960, symSize: 0x88 }
  - { offsetInCU: 0x15130, offset: 0x15130, size: 0x8, addend: 0x0, symName: __ZNSt3__114__split_bufferINS_6vectorI5pointNS_9allocatorIS2_EEEERNS3_IS5_EEE7__allocB7v160006Ev, symObjAddr: 0x27560, symBinAddr: 0x100029C74, symSize: 0xE4 }
  - { offsetInCU: 0x15155, offset: 0x15155, size: 0x8, addend: 0x0, symName: __ZNSt3__114__split_bufferINS_6vectorI5pointNS_9allocatorIS2_EEEERNS3_IS5_EEE9__end_capB7v160006Ev, symObjAddr: 0x27644, symBinAddr: 0x100029D58, symSize: 0x100 }
  - { offsetInCU: 0x1517A, offset: 0x1517A, size: 0x8, addend: 0x0, symName: __ZNSt3__117__compressed_pairIPNS_6vectorI5pointNS_9allocatorIS2_EEEERNS3_IS5_EEEC2B7v160006IDnS8_EEOT_OT0_, symObjAddr: 0x27744, symBinAddr: 0x100029E58, symSize: 0x198 }
  - { offsetInCU: 0x151D1, offset: 0x151D1, size: 0x8, addend: 0x0, symName: __ZNSt3__122__compressed_pair_elemIRNS_9allocatorINS_6vectorI5pointNS1_IS3_EEEEEELi1ELb0EEC2B7v160006IS7_vEEOT_, symObjAddr: 0x278DC, symBinAddr: 0x100029FF0, symSize: 0xEC }
  - { offsetInCU: 0x15212, offset: 0x15212, size: 0x8, addend: 0x0, symName: __ZNSt3__19allocatorINS_6vectorI5pointNS0_IS2_EEEEE8allocateB7v160006Em, symObjAddr: 0x279C8, symBinAddr: 0x10002A0DC, symSize: 0xD0 }
  - { offsetInCU: 0x15245, offset: 0x15245, size: 0x8, addend: 0x0, symName: __ZNSt3__117__compressed_pairIPNS_6vectorI5pointNS_9allocatorIS2_EEEERNS3_IS5_EEE6secondB7v160006Ev, symObjAddr: 0x27A98, symBinAddr: 0x10002A1AC, symSize: 0x110 }
  - { offsetInCU: 0x1526A, offset: 0x1526A, size: 0x8, addend: 0x0, symName: __ZNSt3__122__compressed_pair_elemIRNS_9allocatorINS_6vectorI5pointNS1_IS3_EEEEEELi1ELb0EE5__getB7v160006Ev, symObjAddr: 0x27BA8, symBinAddr: 0x10002A2BC, symSize: 0xD8 }
  - { offsetInCU: 0x1528F, offset: 0x1528F, size: 0x8, addend: 0x0, symName: __ZNSt3__117__compressed_pairIPNS_6vectorI5pointNS_9allocatorIS2_EEEERNS3_IS5_EEE5firstB7v160006Ev, symObjAddr: 0x27C80, symBinAddr: 0x10002A394, symSize: 0x124 }
  - { offsetInCU: 0x152BE, offset: 0x152BE, size: 0x8, addend: 0x0, symName: __ZNSt3__114__split_bufferINS_6vectorI5pointNS_9allocatorIS2_EEEERNS3_IS5_EEE21_ConstructTransactionC1B7v160006EPPS5_m, symObjAddr: 0x27DA4, symBinAddr: 0x10002A4B8, symSize: 0x88 }
  - { offsetInCU: 0x15303, offset: 0x15303, size: 0x8, addend: 0x0, symName: __ZNSt3__114__split_bufferINS_6vectorI5pointNS_9allocatorIS2_EEEERNS3_IS5_EEE21_ConstructTransactionD1B7v160006Ev, symObjAddr: 0x27E2C, symBinAddr: 0x10002A540, symSize: 0x78 }
  - { offsetInCU: 0x1532C, offset: 0x1532C, size: 0x8, addend: 0x0, symName: __ZNSt3__114__split_bufferINS_6vectorI5pointNS_9allocatorIS2_EEEERNS3_IS5_EEE21_ConstructTransactionC2B7v160006EPPS5_m, symObjAddr: 0x27EA4, symBinAddr: 0x10002A5B8, symSize: 0x32C }
  - { offsetInCU: 0x15371, offset: 0x15371, size: 0x8, addend: 0x0, symName: __ZNSt3__114__split_bufferINS_6vectorI5pointNS_9allocatorIS2_EEEERNS3_IS5_EEE21_ConstructTransactionD2B7v160006Ev, symObjAddr: 0x281D0, symBinAddr: 0x10002A8E4, symSize: 0x174 }
  - { offsetInCU: 0x1539A, offset: 0x1539A, size: 0x8, addend: 0x0, symName: __ZNSt3__116reverse_iteratorIPNS_6vectorI5pointNS_9allocatorIS2_EEEEEC1B7v160006ES6_, symObjAddr: 0x2891C, symBinAddr: 0x10002B030, symSize: 0x80 }
  - { offsetInCU: 0x153D1, offset: 0x153D1, size: 0x8, addend: 0x0, symName: __ZNKSt3__116reverse_iteratorIPNS_6vectorI5pointNS_9allocatorIS2_EEEEE4baseB7v160006Ev, symObjAddr: 0x2899C, symBinAddr: 0x10002B0B0, symSize: 0xB0 }
  - { offsetInCU: 0x153F6, offset: 0x153F6, size: 0x8, addend: 0x0, symName: __ZNKSt3__16vectorINS0_I5pointNS_9allocatorIS1_EEEENS2_IS4_EEE14__annotate_newB7v160006Em, symObjAddr: 0x28C0C, symBinAddr: 0x10002B320, symSize: 0x378 }
  - { offsetInCU: 0x1542A, offset: 0x1542A, size: 0x8, addend: 0x0, symName: __ZNSt3__129_AllocatorDestroyRangeReverseINS_9allocatorINS_6vectorI5pointNS1_IS3_EEEEEENS_16reverse_iteratorIPS5_EEEC1B7v160006ERS6_RS9_SC_, symObjAddr: 0x291D0, symBinAddr: 0x10002B8E4, symSize: 0x90 }
  - { offsetInCU: 0x15480, offset: 0x15480, size: 0x8, addend: 0x0, symName: __ZNSt3__116allocator_traitsINS_9allocatorINS_6vectorI5pointNS1_IS3_EEEEEEE9constructB7v160006IS5_JS5_EvEEvRS6_PT_DpOT0_, symObjAddr: 0x292FC, symBinAddr: 0x10002BA10, symSize: 0x8C }
  - { offsetInCU: 0x154D7, offset: 0x154D7, size: 0x8, addend: 0x0, symName: __ZNKSt3__116reverse_iteratorIPNS_6vectorI5pointNS_9allocatorIS2_EEEEEdeB7v160006Ev, symObjAddr: 0x293F4, symBinAddr: 0x10002BB08, symSize: 0x184 }
  - { offsetInCU: 0x1550A, offset: 0x1550A, size: 0x8, addend: 0x0, symName: __ZNSt3__116reverse_iteratorIPNS_6vectorI5pointNS_9allocatorIS2_EEEEEppB7v160006Ev, symObjAddr: 0x29578, symBinAddr: 0x10002BC8C, symSize: 0x1B0 }
  - { offsetInCU: 0x1552F, offset: 0x1552F, size: 0x8, addend: 0x0, symName: __ZNSt3__128__exception_guard_exceptionsINS_29_AllocatorDestroyRangeReverseINS_9allocatorINS_6vectorI5pointNS2_IS4_EEEEEENS_16reverse_iteratorIPS6_EEEEE10__completeB7v160006Ev, symObjAddr: 0x29728, symBinAddr: 0x10002BE3C, symSize: 0xD8 }
  - { offsetInCU: 0x15554, offset: 0x15554, size: 0x8, addend: 0x0, symName: __ZNSt3__128__exception_guard_exceptionsINS_29_AllocatorDestroyRangeReverseINS_9allocatorINS_6vectorI5pointNS2_IS4_EEEEEENS_16reverse_iteratorIPS6_EEEEED1B7v160006Ev, symObjAddr: 0x29800, symBinAddr: 0x10002BF14, symSize: 0x78 }
  - { offsetInCU: 0x1557D, offset: 0x1557D, size: 0x8, addend: 0x0, symName: __ZNSt3__128__exception_guard_exceptionsINS_29_AllocatorDestroyRangeReverseINS_9allocatorINS_6vectorI5pointNS2_IS4_EEEEEENS_16reverse_iteratorIPS6_EEEEEC1B7v160006ESB_, symObjAddr: 0x29878, symBinAddr: 0x10002BF8C, symSize: 0x84 }
  - { offsetInCU: 0x155B5, offset: 0x155B5, size: 0x8, addend: 0x0, symName: __ZNSt3__128__exception_guard_exceptionsINS_29_AllocatorDestroyRangeReverseINS_9allocatorINS_6vectorI5pointNS2_IS4_EEEEEENS_16reverse_iteratorIPS6_EEEEEC2B7v160006ESB_, symObjAddr: 0x298FC, symBinAddr: 0x10002C010, symSize: 0xF8 }
  - { offsetInCU: 0x155ED, offset: 0x155ED, size: 0x8, addend: 0x0, symName: __ZNSt3__129_AllocatorDestroyRangeReverseINS_9allocatorINS_6vectorI5pointNS1_IS3_EEEEEENS_16reverse_iteratorIPS5_EEEC2B7v160006ERS6_RS9_SC_, symObjAddr: 0x299F4, symBinAddr: 0x10002C108, symSize: 0x20C }
  - { offsetInCU: 0x15643, offset: 0x15643, size: 0x8, addend: 0x0, symName: __ZNSt3__19allocatorINS_6vectorI5pointNS0_IS2_EEEEE9constructB7v160006IS4_JS4_EEEvPT_DpOT0_, symObjAddr: 0x29C00, symBinAddr: 0x10002C314, symSize: 0xEC }
  - { offsetInCU: 0x15698, offset: 0x15698, size: 0x8, addend: 0x0, symName: __ZNSt3__16vectorI5pointNS_9allocatorIS1_EEEC1B7v160006EOS4_, symObjAddr: 0x29CEC, symBinAddr: 0x10002C400, symSize: 0x80 }
  - { offsetInCU: 0x156D2, offset: 0x156D2, size: 0x8, addend: 0x0, symName: __ZNSt3__16vectorI5pointNS_9allocatorIS1_EEEC2B7v160006EOS4_, symObjAddr: 0x29D6C, symBinAddr: 0x10002C480, symSize: 0x794 }
  - { offsetInCU: 0x15713, offset: 0x15713, size: 0x8, addend: 0x0, symName: __ZNSt3__117__compressed_pairIP5pointNS_9allocatorIS1_EEEC1B7v160006IDnS4_EEOT_OT0_, symObjAddr: 0x2A500, symBinAddr: 0x10002CC14, symSize: 0x88 }
  - { offsetInCU: 0x1576A, offset: 0x1576A, size: 0x8, addend: 0x0, symName: __ZNSt3__117__compressed_pairIP5pointNS_9allocatorIS1_EEEC2B7v160006IDnS4_EEOT_OT0_, symObjAddr: 0x2A59C, symBinAddr: 0x10002CCB0, symSize: 0x170 }
  - { offsetInCU: 0x157C1, offset: 0x157C1, size: 0x8, addend: 0x0, symName: __ZNSt3__122__compressed_pair_elemINS_9allocatorI5pointEELi1ELb1EEC2B7v160006IS3_vEEOT_, symObjAddr: 0x2A70C, symBinAddr: 0x10002CE20, symSize: 0x58 }
  - { offsetInCU: 0x15807, offset: 0x15807, size: 0x8, addend: 0x0, symName: __ZNSt3__119__to_address_helperINS_16reverse_iteratorIPNS_6vectorI5pointNS_9allocatorIS3_EEEEEEvE6__callB7v160006ERKS8_, symObjAddr: 0x2A764, symBinAddr: 0x10002CE78, symSize: 0x70 }
  - { offsetInCU: 0x1582A, offset: 0x1582A, size: 0x8, addend: 0x0, symName: __ZNKSt3__116reverse_iteratorIPNS_6vectorI5pointNS_9allocatorIS2_EEEEEptB7v160006Ev, symObjAddr: 0x2A7D4, symBinAddr: 0x10002CEE8, symSize: 0x6C }
  - { offsetInCU: 0x1584F, offset: 0x1584F, size: 0x8, addend: 0x0, symName: __ZNSt3__128__exception_guard_exceptionsINS_29_AllocatorDestroyRangeReverseINS_9allocatorINS_6vectorI5pointNS2_IS4_EEEEEENS_16reverse_iteratorIPS6_EEEEED2B7v160006Ev, symObjAddr: 0x2A840, symBinAddr: 0x10002CF54, symSize: 0x17C }
  - { offsetInCU: 0x15878, offset: 0x15878, size: 0x8, addend: 0x0, symName: __ZNKSt3__129_AllocatorDestroyRangeReverseINS_9allocatorINS_6vectorI5pointNS1_IS3_EEEEEENS_16reverse_iteratorIPS5_EEEclB7v160006Ev, symObjAddr: 0x2A9BC, symBinAddr: 0x10002D0D0, symSize: 0x418 }
  - { offsetInCU: 0x1589E, offset: 0x1589E, size: 0x8, addend: 0x0, symName: __ZNSt3__116reverse_iteratorINS0_IPNS_6vectorI5pointNS_9allocatorIS2_EEEEEEEC1B7v160006ES7_, symObjAddr: 0x2AF78, symBinAddr: 0x10002D68C, symSize: 0x29C }
  - { offsetInCU: 0x158DA, offset: 0x158DA, size: 0x8, addend: 0x0, symName: __ZNSt3__116reverse_iteratorINS0_IPNS_6vectorI5pointNS_9allocatorIS2_EEEEEEEppB7v160006Ev, symObjAddr: 0x2B5A4, symBinAddr: 0x10002DCB8, symSize: 0x100 }
  - { offsetInCU: 0x158FF, offset: 0x158FF, size: 0x8, addend: 0x0, symName: __ZNKSt3__116reverse_iteratorINS0_IPNS_6vectorI5pointNS_9allocatorIS2_EEEEEEE4baseB7v160006Ev, symObjAddr: 0x2B6A4, symBinAddr: 0x10002DDB8, symSize: 0x258 }
  - { offsetInCU: 0x1592A, offset: 0x1592A, size: 0x8, addend: 0x0, symName: __ZNSt3__119__to_address_helperINS_16reverse_iteratorINS1_IPNS_6vectorI5pointNS_9allocatorIS3_EEEEEEEEvE6__callB7v160006ERKS9_, symObjAddr: 0x2B8FC, symBinAddr: 0x10002E010, symSize: 0x70 }
  - { offsetInCU: 0x1594D, offset: 0x1594D, size: 0x8, addend: 0x0, symName: __ZNKSt3__116reverse_iteratorINS0_IPNS_6vectorI5pointNS_9allocatorIS2_EEEEEEEptB7v160006Ev, symObjAddr: 0x2B96C, symBinAddr: 0x10002E080, symSize: 0x6C }
  - { offsetInCU: 0x15972, offset: 0x15972, size: 0x8, addend: 0x0, symName: __ZNKSt3__116reverse_iteratorINS0_IPNS_6vectorI5pointNS_9allocatorIS2_EEEEEEEdeB7v160006Ev, symObjAddr: 0x2B9D8, symBinAddr: 0x10002E0EC, symSize: 0x2C4 }
  - { offsetInCU: 0x159AA, offset: 0x159AA, size: 0x8, addend: 0x0, symName: __ZNSt3__116reverse_iteratorIPNS_6vectorI5pointNS_9allocatorIS2_EEEEEmmB7v160006Ev, symObjAddr: 0x2BC9C, symBinAddr: 0x10002E3B0, symSize: 0x1B0 }
  - { offsetInCU: 0x159CF, offset: 0x159CF, size: 0x8, addend: 0x0, symName: __ZNSt3__116reverse_iteratorINS0_IPNS_6vectorI5pointNS_9allocatorIS2_EEEEEEEC2B7v160006ES7_, symObjAddr: 0x2BE4C, symBinAddr: 0x10002E560, symSize: 0x284 }
  - { offsetInCU: 0x15A0B, offset: 0x15A0B, size: 0x8, addend: 0x0, symName: __ZNSt3__116reverse_iteratorIPNS_6vectorI5pointNS_9allocatorIS2_EEEEEC2B7v160006ES6_, symObjAddr: 0x2C0D0, symBinAddr: 0x10002E7E4, symSize: 0x10C }
  - { offsetInCU: 0x15A42, offset: 0x15A42, size: 0x8, addend: 0x0, symName: __ZNSt3__114__split_bufferINS_6vectorI5pointNS_9allocatorIS2_EEEERNS3_IS5_EEED2Ev, symObjAddr: 0x2C1DC, symBinAddr: 0x10002E8F0, symSize: 0x16C }
  - { offsetInCU: 0x15A6D, offset: 0x15A6D, size: 0x8, addend: 0x0, symName: __ZNSt3__114__split_bufferINS_6vectorI5pointNS_9allocatorIS2_EEEERNS3_IS5_EEE5clearB7v160006Ev, symObjAddr: 0x2C348, symBinAddr: 0x10002EA5C, symSize: 0xB4 }
  - { offsetInCU: 0x15A92, offset: 0x15A92, size: 0x8, addend: 0x0, symName: __ZNKSt3__114__split_bufferINS_6vectorI5pointNS_9allocatorIS2_EEEERNS3_IS5_EEE8capacityB7v160006Ev, symObjAddr: 0x2C3FC, symBinAddr: 0x10002EB10, symSize: 0x144 }
  - { offsetInCU: 0x15AB7, offset: 0x15AB7, size: 0x8, addend: 0x0, symName: __ZNSt3__114__split_bufferINS_6vectorI5pointNS_9allocatorIS2_EEEERNS3_IS5_EEE17__destruct_at_endB7v160006EPS5_, symObjAddr: 0x2C540, symBinAddr: 0x10002EC54, symSize: 0x74 }
  - { offsetInCU: 0x15AE9, offset: 0x15AE9, size: 0x8, addend: 0x0, symName: __ZNSt3__114__split_bufferINS_6vectorI5pointNS_9allocatorIS2_EEEERNS3_IS5_EEE17__destruct_at_endB7v160006EPS5_NS_17integral_constantIbLb0EEE, symObjAddr: 0x2C5B4, symBinAddr: 0x10002ECC8, symSize: 0x224 }
  - { offsetInCU: 0x15B29, offset: 0x15B29, size: 0x8, addend: 0x0, symName: __ZNKSt3__114__split_bufferINS_6vectorI5pointNS_9allocatorIS2_EEEERNS3_IS5_EEE9__end_capB7v160006Ev, symObjAddr: 0x2C7D8, symBinAddr: 0x10002EEEC, symSize: 0x100 }
  - { offsetInCU: 0x15B4E, offset: 0x15B4E, size: 0x8, addend: 0x0, symName: __ZNKSt3__117__compressed_pairIPNS_6vectorI5pointNS_9allocatorIS2_EEEERNS3_IS5_EEE5firstB7v160006Ev, symObjAddr: 0x2C8D8, symBinAddr: 0x10002EFEC, symSize: 0x124 }
  - { offsetInCU: 0x15B72, offset: 0x15B72, size: 0x8, addend: 0x0, symName: __ZNSt3__16vectorINS0_I5pointNS_9allocatorIS1_EEEENS2_IS4_EEE27__invalidate_iterators_pastB7v160006EPS4_, symObjAddr: 0x2C9FC, symBinAddr: 0x10002F110, symSize: 0x64 }
  - { offsetInCU: 0x15BA8, offset: 0x15BA8, size: 0x8, addend: 0x0, symName: __ZNSt3__16vectorI5pointNS_9allocatorIS1_EEE11__make_iterB7v160006EPS1_, symObjAddr: 0x2CA60, symBinAddr: 0x10002F174, symSize: 0x24C }
  - { offsetInCU: 0x15BDE, offset: 0x15BDE, size: 0x8, addend: 0x0, symName: __ZNSt3__111__wrap_iterIP5pointEC1B7v160006EPKvS2_, symObjAddr: 0x2CCAC, symBinAddr: 0x10002F3C0, symSize: 0x88 }
  - { offsetInCU: 0x15C23, offset: 0x15C23, size: 0x8, addend: 0x0, symName: __ZNSt3__111__wrap_iterIP5pointEC2B7v160006EPKvS2_, symObjAddr: 0x2CD34, symBinAddr: 0x10002F448, symSize: 0xCC }
  - { offsetInCU: 0x15C68, offset: 0x15C68, size: 0x8, addend: 0x0, symName: __ZNSt3__111char_traitsIcE6lengthEPKc, symObjAddr: 0x2DE3C, symBinAddr: 0x100030550, symSize: 0x40 }
  - { offsetInCU: 0x15CA9, offset: 0x15CA9, size: 0x8, addend: 0x0, symName: __ZNKSt3__113basic_ostreamIcNS_11char_traitsIcEEE6sentrycvbB7v160006Ev, symObjAddr: 0x2DE7C, symBinAddr: 0x100030590, symSize: 0x104 }
  - { offsetInCU: 0x15CCE, offset: 0x15CCE, size: 0x8, addend: 0x0, symName: __ZNSt3__119ostreambuf_iteratorIcNS_11char_traitsIcEEEC1B7v160006ERNS_13basic_ostreamIcS2_EE, symObjAddr: 0x2EB08, symBinAddr: 0x10003121C, symSize: 0x80 }
  - { offsetInCU: 0x15D04, offset: 0x15D04, size: 0x8, addend: 0x0, symName: __ZNKSt3__18ios_base5flagsB7v160006Ev, symObjAddr: 0x2EB88, symBinAddr: 0x10003129C, symSize: 0x160 }
  - { offsetInCU: 0x15D2A, offset: 0x15D2A, size: 0x8, addend: 0x0, symName: __ZNKSt3__19basic_iosIcNS_11char_traitsIcEEE4fillB7v160006Ev, symObjAddr: 0x2ECE8, symBinAddr: 0x1000313FC, symSize: 0x39C }
  - { offsetInCU: 0x15D51, offset: 0x15D51, size: 0x8, addend: 0x0, symName: __ZNKSt3__119ostreambuf_iteratorIcNS_11char_traitsIcEEE6failedB7v160006Ev, symObjAddr: 0x2F084, symBinAddr: 0x100031798, symSize: 0xB8 }
  - { offsetInCU: 0x15D76, offset: 0x15D76, size: 0x8, addend: 0x0, symName: __ZNSt3__19basic_iosIcNS_11char_traitsIcEEE8setstateB7v160006Ej, symObjAddr: 0x2F13C, symBinAddr: 0x100031850, symSize: 0x128 }
  - { offsetInCU: 0x15DA9, offset: 0x15DA9, size: 0x8, addend: 0x0, symName: __ZNKSt3__18ios_base5widthB7v160006Ev, symObjAddr: 0x2F264, symBinAddr: 0x100031978, symSize: 0x138 }
  - { offsetInCU: 0x15DD0, offset: 0x15DD0, size: 0x8, addend: 0x0, symName: __ZNSt3__115basic_streambufIcNS_11char_traitsIcEEE5sputnB7v160006EPKcl, symObjAddr: 0x2F39C, symBinAddr: 0x100031AB0, symSize: 0x198 }
  - { offsetInCU: 0x15E11, offset: 0x15E11, size: 0x8, addend: 0x0, symName: __ZNSt3__112basic_stringIcNS_11char_traitsIcEENS_9allocatorIcEEEC1B7v160006Emc, symObjAddr: 0x2F534, symBinAddr: 0x100031C48, symSize: 0x88 }
  - { offsetInCU: 0x15E58, offset: 0x15E58, size: 0x8, addend: 0x0, symName: __ZNKSt3__112basic_stringIcNS_11char_traitsIcEENS_9allocatorIcEEE4dataB7v160006Ev, symObjAddr: 0x2F5BC, symBinAddr: 0x100031CD0, symSize: 0x70 }
  - { offsetInCU: 0x15E7C, offset: 0x15E7C, size: 0x8, addend: 0x0, symName: __ZNSt3__18ios_base5widthB7v160006El, symObjAddr: 0x2F62C, symBinAddr: 0x100031D40, symSize: 0x1F8 }
  - { offsetInCU: 0x15EC1, offset: 0x15EC1, size: 0x8, addend: 0x0, symName: __ZNSt3__112basic_stringIcNS_11char_traitsIcEENS_9allocatorIcEEEC2B7v160006Emc, symObjAddr: 0x2F824, symBinAddr: 0x100031F38, symSize: 0x274 }
  - { offsetInCU: 0x15F0B, offset: 0x15F0B, size: 0x8, addend: 0x0, symName: __ZNKSt3__112basic_stringIcNS_11char_traitsIcEENS_9allocatorIcEEE13__get_pointerB7v160006Ev, symObjAddr: 0x2FAAC, symBinAddr: 0x1000321C0, symSize: 0x98 }
  - { offsetInCU: 0x15F30, offset: 0x15F30, size: 0x8, addend: 0x0, symName: __ZNKSt3__112basic_stringIcNS_11char_traitsIcEENS_9allocatorIcEEE9__is_longB7v160006Ev, symObjAddr: 0x2FB44, symBinAddr: 0x100032258, symSize: 0x1FC }
  - { offsetInCU: 0x15F55, offset: 0x15F55, size: 0x8, addend: 0x0, symName: __ZNKSt3__112basic_stringIcNS_11char_traitsIcEENS_9allocatorIcEEE18__get_long_pointerB7v160006Ev, symObjAddr: 0x2FD40, symBinAddr: 0x100032454, symSize: 0x208 }
  - { offsetInCU: 0x15F7A, offset: 0x15F7A, size: 0x8, addend: 0x0, symName: __ZNKSt3__112basic_stringIcNS_11char_traitsIcEENS_9allocatorIcEEE19__get_short_pointerB7v160006Ev, symObjAddr: 0x2FF48, symBinAddr: 0x10003265C, symSize: 0x1CC }
  - { offsetInCU: 0x15F9F, offset: 0x15F9F, size: 0x8, addend: 0x0, symName: __ZNKSt3__117__compressed_pairINS_12basic_stringIcNS_11char_traitsIcEENS_9allocatorIcEEE5__repES5_E5firstB7v160006Ev, symObjAddr: 0x30114, symBinAddr: 0x100032828, symSize: 0x124 }
  - { offsetInCU: 0x15FC4, offset: 0x15FC4, size: 0x8, addend: 0x0, symName: __ZNKSt3__122__compressed_pair_elemINS_12basic_stringIcNS_11char_traitsIcEENS_9allocatorIcEEE5__repELi0ELb0EE5__getB7v160006Ev, symObjAddr: 0x30238, symBinAddr: 0x10003294C, symSize: 0xAC }
  - { offsetInCU: 0x15FE9, offset: 0x15FE9, size: 0x8, addend: 0x0, symName: __ZNSt3__114pointer_traitsIPKcE10pointer_toB7v160006ERS1_, symObjAddr: 0x302E4, symBinAddr: 0x1000329F8, symSize: 0x14 }
  - { offsetInCU: 0x1600C, offset: 0x1600C, size: 0x8, addend: 0x0, symName: __ZNSt3__119ostreambuf_iteratorIcNS_11char_traitsIcEEEC2B7v160006ERNS_13basic_ostreamIcS2_EE, symObjAddr: 0x302F8, symBinAddr: 0x100032A0C, symSize: 0x2E8 }
  - { offsetInCU: 0x16042, offset: 0x16042, size: 0x8, addend: 0x0, symName: __ZNKSt3__19basic_iosIcNS_11char_traitsIcEEE5rdbufB7v160006Ev, symObjAddr: 0x305E0, symBinAddr: 0x100032CF4, symSize: 0x120 }
  - { offsetInCU: 0x16069, offset: 0x16069, size: 0x8, addend: 0x0, symName: __ZNKSt3__18ios_base5rdbufB7v160006Ev, symObjAddr: 0x30700, symBinAddr: 0x100032E14, symSize: 0x138 }
  - { offsetInCU: 0x1608E, offset: 0x1608E, size: 0x8, addend: 0x0, symName: __ZNSt3__111char_traitsIcE11eq_int_typeEii, symObjAddr: 0x30838, symBinAddr: 0x100032F4C, symSize: 0x28 }
  - { offsetInCU: 0x160BE, offset: 0x160BE, size: 0x8, addend: 0x0, symName: __ZNSt3__18ios_base8setstateB7v160006Ej, symObjAddr: 0x30860, symBinAddr: 0x100032F74, symSize: 0x1E0 }
  - { offsetInCU: 0x160F4, offset: 0x160F4, size: 0x8, addend: 0x0, symName: __ZNSt3__16vectorINS0_INS0_I5pointNS_9allocatorIS1_EEEENS2_IS4_EEEENS2_IS6_EEEC2ERKS8_, symObjAddr: 0x30A64, symBinAddr: 0x100033178, symSize: 0x6A4 }
  - { offsetInCU: 0x16159, offset: 0x16159, size: 0x8, addend: 0x0, symName: __ZNSt3__116allocator_traitsINS_9allocatorINS_6vectorINS2_I5pointNS1_IS3_EEEENS1_IS5_EEEEEEE37select_on_container_copy_constructionB7v160006IS8_vvEES8_RKS8_, symObjAddr: 0x31108, symBinAddr: 0x10003381C, symSize: 0x10 }
  - { offsetInCU: 0x1618D, offset: 0x1618D, size: 0x8, addend: 0x0, symName: __ZNSt3__117__compressed_pairIPNS_6vectorINS1_I5pointNS_9allocatorIS2_EEEENS3_IS5_EEEENS3_IS7_EEEC1B7v160006IDnS9_EEOT_OT0_, symObjAddr: 0x31118, symBinAddr: 0x10003382C, symSize: 0x88 }
  - { offsetInCU: 0x161E4, offset: 0x161E4, size: 0x8, addend: 0x0, symName: __ZNSt3__16vectorINS0_INS0_I5pointNS_9allocatorIS1_EEEENS2_IS4_EEEENS2_IS6_EEE11__vallocateB7v160006Em, symObjAddr: 0x3145C, symBinAddr: 0x100033B70, symSize: 0x5F0 }
  - { offsetInCU: 0x1622C, offset: 0x1622C, size: 0x8, addend: 0x0, symName: __ZNSt3__16vectorINS0_INS0_I5pointNS_9allocatorIS1_EEEENS2_IS4_EEEENS2_IS6_EEE18__construct_at_endIPS6_Li0EEEvT_SB_m, symObjAddr: 0x31A4C, symBinAddr: 0x100034160, symSize: 0x494 }
  - { offsetInCU: 0x162A6, offset: 0x162A6, size: 0x8, addend: 0x0, symName: __ZNSt3__128__exception_guard_exceptionsINS_6vectorINS1_INS1_I5pointNS_9allocatorIS2_EEEENS3_IS5_EEEENS3_IS7_EEE16__destroy_vectorEE10__completeB7v160006Ev, symObjAddr: 0x31EE0, symBinAddr: 0x1000345F4, symSize: 0xD8 }
  - { offsetInCU: 0x162CB, offset: 0x162CB, size: 0x8, addend: 0x0, symName: __ZNSt3__128__exception_guard_exceptionsINS_6vectorINS1_INS1_I5pointNS_9allocatorIS2_EEEENS3_IS5_EEEENS3_IS7_EEE16__destroy_vectorEED1B7v160006Ev, symObjAddr: 0x31FB8, symBinAddr: 0x1000346CC, symSize: 0x78 }
  - { offsetInCU: 0x162F4, offset: 0x162F4, size: 0x8, addend: 0x0, symName: __ZNSt3__117__compressed_pairIPNS_6vectorINS1_I5pointNS_9allocatorIS2_EEEENS3_IS5_EEEENS3_IS7_EEEC2B7v160006IDnS9_EEOT_OT0_, symObjAddr: 0x32030, symBinAddr: 0x100034744, symSize: 0x170 }
  - { offsetInCU: 0x1634B, offset: 0x1634B, size: 0x8, addend: 0x0, symName: __ZNSt3__122__compressed_pair_elemINS_9allocatorINS_6vectorINS2_I5pointNS1_IS3_EEEENS1_IS5_EEEEEELi1ELb1EEC2B7v160006IS8_vEEOT_, symObjAddr: 0x321A0, symBinAddr: 0x1000348B4, symSize: 0x58 }
  - { offsetInCU: 0x1638C, offset: 0x1638C, size: 0x8, addend: 0x0, symName: __ZNSt3__128__exception_guard_exceptionsINS_6vectorINS1_INS1_I5pointNS_9allocatorIS2_EEEENS3_IS5_EEEENS3_IS7_EEE16__destroy_vectorEEC1B7v160006ESA_, symObjAddr: 0x321F8, symBinAddr: 0x10003490C, symSize: 0x28C }
  - { offsetInCU: 0x163C8, offset: 0x163C8, size: 0x8, addend: 0x0, symName: __ZNSt3__128__exception_guard_exceptionsINS_6vectorINS1_INS1_I5pointNS_9allocatorIS2_EEEENS3_IS5_EEEENS3_IS7_EEE16__destroy_vectorEEC2B7v160006ESA_, symObjAddr: 0x32484, symBinAddr: 0x100034B98, symSize: 0x2BC }
  - { offsetInCU: 0x16404, offset: 0x16404, size: 0x8, addend: 0x0, symName: __ZNSt3__129_AllocatorDestroyRangeReverseINS_9allocatorINS_6vectorINS2_I5pointNS1_IS3_EEEENS1_IS5_EEEEEEPS7_EC1B7v160006ERS8_RS9_SC_, symObjAddr: 0x33068, symBinAddr: 0x10003577C, symSize: 0x90 }
  - { offsetInCU: 0x1645A, offset: 0x1645A, size: 0x8, addend: 0x0, symName: __ZNSt3__116allocator_traitsINS_9allocatorINS_6vectorINS2_I5pointNS1_IS3_EEEENS1_IS5_EEEEEEE9constructB7v160006IS7_JRS7_EvEEvRS8_PT_DpOT0_, symObjAddr: 0x330F8, symBinAddr: 0x10003580C, symSize: 0x8C }
  - { offsetInCU: 0x164B1, offset: 0x164B1, size: 0x8, addend: 0x0, symName: __ZNSt3__128__exception_guard_exceptionsINS_29_AllocatorDestroyRangeReverseINS_9allocatorINS_6vectorINS3_I5pointNS2_IS4_EEEENS2_IS6_EEEEEEPS8_EEE10__completeB7v160006Ev, symObjAddr: 0x33184, symBinAddr: 0x100035898, symSize: 0xD8 }
  - { offsetInCU: 0x164D6, offset: 0x164D6, size: 0x8, addend: 0x0, symName: __ZNSt3__128__exception_guard_exceptionsINS_29_AllocatorDestroyRangeReverseINS_9allocatorINS_6vectorINS3_I5pointNS2_IS4_EEEENS2_IS6_EEEEEEPS8_EEED1B7v160006Ev, symObjAddr: 0x3325C, symBinAddr: 0x100035970, symSize: 0x78 }
  - { offsetInCU: 0x164FF, offset: 0x164FF, size: 0x8, addend: 0x0, symName: __ZNSt3__128__exception_guard_exceptionsINS_29_AllocatorDestroyRangeReverseINS_9allocatorINS_6vectorINS3_I5pointNS2_IS4_EEEENS2_IS6_EEEEEEPS8_EEEC1B7v160006ESB_, symObjAddr: 0x332D4, symBinAddr: 0x1000359E8, symSize: 0x84 }
  - { offsetInCU: 0x16537, offset: 0x16537, size: 0x8, addend: 0x0, symName: __ZNSt3__128__exception_guard_exceptionsINS_29_AllocatorDestroyRangeReverseINS_9allocatorINS_6vectorINS3_I5pointNS2_IS4_EEEENS2_IS6_EEEEEEPS8_EEEC2B7v160006ESB_, symObjAddr: 0x33358, symBinAddr: 0x100035A6C, symSize: 0xF8 }
  - { offsetInCU: 0x1656F, offset: 0x1656F, size: 0x8, addend: 0x0, symName: __ZNSt3__129_AllocatorDestroyRangeReverseINS_9allocatorINS_6vectorINS2_I5pointNS1_IS3_EEEENS1_IS5_EEEEEEPS7_EC2B7v160006ERS8_RS9_SC_, symObjAddr: 0x33450, symBinAddr: 0x100035B64, symSize: 0x20C }
  - { offsetInCU: 0x165C5, offset: 0x165C5, size: 0x8, addend: 0x0, symName: __ZNSt3__19allocatorINS_6vectorINS1_I5pointNS0_IS2_EEEENS0_IS4_EEEEE9constructB7v160006IS6_JRS6_EEEvPT_DpOT0_, symObjAddr: 0x3365C, symBinAddr: 0x100035D70, symSize: 0xEC }
  - { offsetInCU: 0x1661A, offset: 0x1661A, size: 0x8, addend: 0x0, symName: __ZNSt3__16vectorINS0_I5pointNS_9allocatorIS1_EEEENS2_IS4_EEEC1ERKS6_, symObjAddr: 0x33748, symBinAddr: 0x100035E5C, symSize: 0x80 }
  - { offsetInCU: 0x16654, offset: 0x16654, size: 0x8, addend: 0x0, symName: __ZNSt3__16vectorINS0_I5pointNS_9allocatorIS1_EEEENS2_IS4_EEEC2ERKS6_, symObjAddr: 0x337C8, symBinAddr: 0x100035EDC, symSize: 0x6A4 }
  - { offsetInCU: 0x166B9, offset: 0x166B9, size: 0x8, addend: 0x0, symName: __ZNSt3__116allocator_traitsINS_9allocatorINS_6vectorI5pointNS1_IS3_EEEEEEE37select_on_container_copy_constructionB7v160006IS6_vvEES6_RKS6_, symObjAddr: 0x33E6C, symBinAddr: 0x100036580, symSize: 0x10 }
  - { offsetInCU: 0x166E8, offset: 0x166E8, size: 0x8, addend: 0x0, symName: __ZNSt3__16vectorINS0_I5pointNS_9allocatorIS1_EEEENS2_IS4_EEE11__vallocateB7v160006Em, symObjAddr: 0x34138, symBinAddr: 0x10003684C, symSize: 0x5F0 }
  - { offsetInCU: 0x16730, offset: 0x16730, size: 0x8, addend: 0x0, symName: __ZNSt3__16vectorINS0_I5pointNS_9allocatorIS1_EEEENS2_IS4_EEE18__construct_at_endIPS4_Li0EEEvT_S9_m, symObjAddr: 0x34728, symBinAddr: 0x100036E3C, symSize: 0x494 }
  - { offsetInCU: 0x167AA, offset: 0x167AA, size: 0x8, addend: 0x0, symName: __ZNSt3__128__exception_guard_exceptionsINS_6vectorINS1_I5pointNS_9allocatorIS2_EEEENS3_IS5_EEE16__destroy_vectorEE10__completeB7v160006Ev, symObjAddr: 0x34BBC, symBinAddr: 0x1000372D0, symSize: 0xD8 }
  - { offsetInCU: 0x167CF, offset: 0x167CF, size: 0x8, addend: 0x0, symName: __ZNSt3__128__exception_guard_exceptionsINS_6vectorINS1_I5pointNS_9allocatorIS2_EEEENS3_IS5_EEE16__destroy_vectorEED1B7v160006Ev, symObjAddr: 0x34C94, symBinAddr: 0x1000373A8, symSize: 0x78 }
  - { offsetInCU: 0x167F8, offset: 0x167F8, size: 0x8, addend: 0x0, symName: __ZNSt3__128__exception_guard_exceptionsINS_6vectorINS1_I5pointNS_9allocatorIS2_EEEENS3_IS5_EEE16__destroy_vectorEEC1B7v160006ES8_, symObjAddr: 0x34D0C, symBinAddr: 0x100037420, symSize: 0x28C }
  - { offsetInCU: 0x16834, offset: 0x16834, size: 0x8, addend: 0x0, symName: __ZNSt3__128__exception_guard_exceptionsINS_6vectorINS1_I5pointNS_9allocatorIS2_EEEENS3_IS5_EEE16__destroy_vectorEEC2B7v160006ES8_, symObjAddr: 0x34F98, symBinAddr: 0x1000376AC, symSize: 0x2BC }
  - { offsetInCU: 0x16870, offset: 0x16870, size: 0x8, addend: 0x0, symName: __ZNSt3__129_AllocatorDestroyRangeReverseINS_9allocatorINS_6vectorI5pointNS1_IS3_EEEEEEPS5_EC1B7v160006ERS6_RS7_SA_, symObjAddr: 0x35B7C, symBinAddr: 0x100038290, symSize: 0x90 }
  - { offsetInCU: 0x168C6, offset: 0x168C6, size: 0x8, addend: 0x0, symName: __ZNSt3__116allocator_traitsINS_9allocatorINS_6vectorI5pointNS1_IS3_EEEEEEE9constructB7v160006IS5_JRS5_EvEEvRS6_PT_DpOT0_, symObjAddr: 0x35C0C, symBinAddr: 0x100038320, symSize: 0x8C }
  - { offsetInCU: 0x1691D, offset: 0x1691D, size: 0x8, addend: 0x0, symName: __ZNSt3__128__exception_guard_exceptionsINS_29_AllocatorDestroyRangeReverseINS_9allocatorINS_6vectorI5pointNS2_IS4_EEEEEEPS6_EEE10__completeB7v160006Ev, symObjAddr: 0x35C98, symBinAddr: 0x1000383AC, symSize: 0xD8 }
  - { offsetInCU: 0x16942, offset: 0x16942, size: 0x8, addend: 0x0, symName: __ZNSt3__128__exception_guard_exceptionsINS_29_AllocatorDestroyRangeReverseINS_9allocatorINS_6vectorI5pointNS2_IS4_EEEEEEPS6_EEED1B7v160006Ev, symObjAddr: 0x35D70, symBinAddr: 0x100038484, symSize: 0x78 }
  - { offsetInCU: 0x1696B, offset: 0x1696B, size: 0x8, addend: 0x0, symName: __ZNSt3__128__exception_guard_exceptionsINS_29_AllocatorDestroyRangeReverseINS_9allocatorINS_6vectorI5pointNS2_IS4_EEEEEEPS6_EEEC1B7v160006ES9_, symObjAddr: 0x35DE8, symBinAddr: 0x1000384FC, symSize: 0x84 }
  - { offsetInCU: 0x169A3, offset: 0x169A3, size: 0x8, addend: 0x0, symName: __ZNSt3__128__exception_guard_exceptionsINS_29_AllocatorDestroyRangeReverseINS_9allocatorINS_6vectorI5pointNS2_IS4_EEEEEEPS6_EEEC2B7v160006ES9_, symObjAddr: 0x35E6C, symBinAddr: 0x100038580, symSize: 0xF8 }
  - { offsetInCU: 0x169DB, offset: 0x169DB, size: 0x8, addend: 0x0, symName: __ZNSt3__129_AllocatorDestroyRangeReverseINS_9allocatorINS_6vectorI5pointNS1_IS3_EEEEEEPS5_EC2B7v160006ERS6_RS7_SA_, symObjAddr: 0x35F64, symBinAddr: 0x100038678, symSize: 0x20C }
  - { offsetInCU: 0x16A31, offset: 0x16A31, size: 0x8, addend: 0x0, symName: __ZNSt3__19allocatorINS_6vectorI5pointNS0_IS2_EEEEE9constructB7v160006IS4_JRS4_EEEvPT_DpOT0_, symObjAddr: 0x36170, symBinAddr: 0x100038884, symSize: 0xEC }
  - { offsetInCU: 0x16A86, offset: 0x16A86, size: 0x8, addend: 0x0, symName: __ZNSt3__16vectorI5pointNS_9allocatorIS1_EEEC1ERKS4_, symObjAddr: 0x3625C, symBinAddr: 0x100038970, symSize: 0x80 }
  - { offsetInCU: 0x16AC0, offset: 0x16AC0, size: 0x8, addend: 0x0, symName: __ZNSt3__16vectorI5pointNS_9allocatorIS1_EEEC2ERKS4_, symObjAddr: 0x362DC, symBinAddr: 0x1000389F0, symSize: 0x6A4 }
  - { offsetInCU: 0x16B25, offset: 0x16B25, size: 0x8, addend: 0x0, symName: __ZNSt3__116allocator_traitsINS_9allocatorI5pointEEE37select_on_container_copy_constructionB7v160006IS3_vvEES3_RKS3_, symObjAddr: 0x36980, symBinAddr: 0x100039094, symSize: 0x10 }
  - { offsetInCU: 0x16B54, offset: 0x16B54, size: 0x8, addend: 0x0, symName: __ZNSt3__16vectorI5pointNS_9allocatorIS1_EEE11__vallocateB7v160006Em, symObjAddr: 0x36C4C, symBinAddr: 0x100039360, symSize: 0x5E8 }
  - { offsetInCU: 0x16B9C, offset: 0x16B9C, size: 0x8, addend: 0x0, symName: __ZNSt3__16vectorI5pointNS_9allocatorIS1_EEE18__construct_at_endIPS1_Li0EEEvT_S7_m, symObjAddr: 0x37234, symBinAddr: 0x100039948, symSize: 0x494 }
  - { offsetInCU: 0x16C16, offset: 0x16C16, size: 0x8, addend: 0x0, symName: __ZNSt3__128__exception_guard_exceptionsINS_6vectorI5pointNS_9allocatorIS2_EEE16__destroy_vectorEE10__completeB7v160006Ev, symObjAddr: 0x376C8, symBinAddr: 0x100039DDC, symSize: 0xD8 }
  - { offsetInCU: 0x16C3B, offset: 0x16C3B, size: 0x8, addend: 0x0, symName: __ZNSt3__128__exception_guard_exceptionsINS_6vectorI5pointNS_9allocatorIS2_EEE16__destroy_vectorEED1B7v160006Ev, symObjAddr: 0x377A0, symBinAddr: 0x100039EB4, symSize: 0x78 }
  - { offsetInCU: 0x16C64, offset: 0x16C64, size: 0x8, addend: 0x0, symName: __ZNSt3__128__exception_guard_exceptionsINS_6vectorI5pointNS_9allocatorIS2_EEE16__destroy_vectorEEC1B7v160006ES6_, symObjAddr: 0x37818, symBinAddr: 0x100039F2C, symSize: 0x28C }
  - { offsetInCU: 0x16CA0, offset: 0x16CA0, size: 0x8, addend: 0x0, symName: __ZNSt3__128__exception_guard_exceptionsINS_6vectorI5pointNS_9allocatorIS2_EEE16__destroy_vectorEEC2B7v160006ES6_, symObjAddr: 0x37AA4, symBinAddr: 0x10003A1B8, symSize: 0x2BC }
  - { offsetInCU: 0x16CDC, offset: 0x16CDC, size: 0x8, addend: 0x0, symName: __ZNSt3__129_AllocatorDestroyRangeReverseINS_9allocatorI5pointEEPS2_EC1B7v160006ERS3_RS4_S7_, symObjAddr: 0x38688, symBinAddr: 0x10003AD9C, symSize: 0x90 }
  - { offsetInCU: 0x16D32, offset: 0x16D32, size: 0x8, addend: 0x0, symName: __ZNSt3__116allocator_traitsINS_9allocatorI5pointEEE9constructB7v160006IS2_JRS2_EvEEvRS3_PT_DpOT0_, symObjAddr: 0x38718, symBinAddr: 0x10003AE2C, symSize: 0x8C }
  - { offsetInCU: 0x16D89, offset: 0x16D89, size: 0x8, addend: 0x0, symName: __ZNSt3__128__exception_guard_exceptionsINS_29_AllocatorDestroyRangeReverseINS_9allocatorI5pointEEPS3_EEE10__completeB7v160006Ev, symObjAddr: 0x387A4, symBinAddr: 0x10003AEB8, symSize: 0xD8 }
  - { offsetInCU: 0x16DAE, offset: 0x16DAE, size: 0x8, addend: 0x0, symName: __ZNSt3__128__exception_guard_exceptionsINS_29_AllocatorDestroyRangeReverseINS_9allocatorI5pointEEPS3_EEED1B7v160006Ev, symObjAddr: 0x3887C, symBinAddr: 0x10003AF90, symSize: 0x78 }
  - { offsetInCU: 0x16DD7, offset: 0x16DD7, size: 0x8, addend: 0x0, symName: __ZNSt3__128__exception_guard_exceptionsINS_29_AllocatorDestroyRangeReverseINS_9allocatorI5pointEEPS3_EEEC1B7v160006ES6_, symObjAddr: 0x388F4, symBinAddr: 0x10003B008, symSize: 0x84 }
  - { offsetInCU: 0x16E0F, offset: 0x16E0F, size: 0x8, addend: 0x0, symName: __ZNSt3__128__exception_guard_exceptionsINS_29_AllocatorDestroyRangeReverseINS_9allocatorI5pointEEPS3_EEEC2B7v160006ES6_, symObjAddr: 0x38978, symBinAddr: 0x10003B08C, symSize: 0xF8 }
  - { offsetInCU: 0x16E47, offset: 0x16E47, size: 0x8, addend: 0x0, symName: __ZNSt3__129_AllocatorDestroyRangeReverseINS_9allocatorI5pointEEPS2_EC2B7v160006ERS3_RS4_S7_, symObjAddr: 0x38A70, symBinAddr: 0x10003B184, symSize: 0x20C }
  - { offsetInCU: 0x16E9D, offset: 0x16E9D, size: 0x8, addend: 0x0, symName: __ZNSt3__19allocatorI5pointE9constructB7v160006IS1_JRS1_EEEvPT_DpOT0_, symObjAddr: 0x38C7C, symBinAddr: 0x10003B390, symSize: 0xA8 }
  - { offsetInCU: 0x16EF2, offset: 0x16EF2, size: 0x8, addend: 0x0, symName: __ZNSt3__128__exception_guard_exceptionsINS_29_AllocatorDestroyRangeReverseINS_9allocatorI5pointEEPS3_EEED2B7v160006Ev, symObjAddr: 0x38D24, symBinAddr: 0x10003B438, symSize: 0x17C }
  - { offsetInCU: 0x16F1B, offset: 0x16F1B, size: 0x8, addend: 0x0, symName: __ZNKSt3__129_AllocatorDestroyRangeReverseINS_9allocatorI5pointEEPS2_EclB7v160006Ev, symObjAddr: 0x38EA0, symBinAddr: 0x10003B5B4, symSize: 0x40C }
  - { offsetInCU: 0x16F46, offset: 0x16F46, size: 0x8, addend: 0x0, symName: __ZNSt3__119__to_address_helperINS_16reverse_iteratorIP5pointEEvE6__callB7v160006ERKS4_, symObjAddr: 0x395F4, symBinAddr: 0x10003BD08, symSize: 0x70 }
  - { offsetInCU: 0x16F69, offset: 0x16F69, size: 0x8, addend: 0x0, symName: __ZNKSt3__116reverse_iteratorIP5pointEptB7v160006Ev, symObjAddr: 0x39664, symBinAddr: 0x10003BD78, symSize: 0x6C }
  - { offsetInCU: 0x16F8E, offset: 0x16F8E, size: 0x8, addend: 0x0, symName: __ZNSt3__128__exception_guard_exceptionsINS_6vectorI5pointNS_9allocatorIS2_EEE16__destroy_vectorEED2B7v160006Ev, symObjAddr: 0x396D0, symBinAddr: 0x10003BDE4, symSize: 0x17C }
  - { offsetInCU: 0x16FB7, offset: 0x16FB7, size: 0x8, addend: 0x0, symName: __ZNSt3__128__exception_guard_exceptionsINS_29_AllocatorDestroyRangeReverseINS_9allocatorINS_6vectorI5pointNS2_IS4_EEEEEEPS6_EEED2B7v160006Ev, symObjAddr: 0x3984C, symBinAddr: 0x10003BF60, symSize: 0x17C }
  - { offsetInCU: 0x16FE0, offset: 0x16FE0, size: 0x8, addend: 0x0, symName: __ZNKSt3__129_AllocatorDestroyRangeReverseINS_9allocatorINS_6vectorI5pointNS1_IS3_EEEEEEPS5_EclB7v160006Ev, symObjAddr: 0x399C8, symBinAddr: 0x10003C0DC, symSize: 0x40C }
  - { offsetInCU: 0x17006, offset: 0x17006, size: 0x8, addend: 0x0, symName: __ZNSt3__128__exception_guard_exceptionsINS_6vectorINS1_I5pointNS_9allocatorIS2_EEEENS3_IS5_EEE16__destroy_vectorEED2B7v160006Ev, symObjAddr: 0x3A0B0, symBinAddr: 0x10003C7C4, symSize: 0x17C }
  - { offsetInCU: 0x1702F, offset: 0x1702F, size: 0x8, addend: 0x0, symName: __ZNSt3__128__exception_guard_exceptionsINS_29_AllocatorDestroyRangeReverseINS_9allocatorINS_6vectorINS3_I5pointNS2_IS4_EEEENS2_IS6_EEEEEEPS8_EEED2B7v160006Ev, symObjAddr: 0x3A22C, symBinAddr: 0x10003C940, symSize: 0x17C }
  - { offsetInCU: 0x17058, offset: 0x17058, size: 0x8, addend: 0x0, symName: __ZNKSt3__129_AllocatorDestroyRangeReverseINS_9allocatorINS_6vectorINS2_I5pointNS1_IS3_EEEENS1_IS5_EEEEEEPS7_EclB7v160006Ev, symObjAddr: 0x3A3A8, symBinAddr: 0x10003CABC, symSize: 0x40C }
  - { offsetInCU: 0x1707E, offset: 0x1707E, size: 0x8, addend: 0x0, symName: __ZNSt3__128__exception_guard_exceptionsINS_6vectorINS1_INS1_I5pointNS_9allocatorIS2_EEEENS3_IS5_EEEENS3_IS7_EEE16__destroy_vectorEED2B7v160006Ev, symObjAddr: 0x3AA90, symBinAddr: 0x10003D1A4, symSize: 0x17C }
  - { offsetInCU: 0x170C5, offset: 0x170C5, size: 0x8, addend: 0x0, symName: __ZNKSt3__113basic_istreamIcNS_11char_traitsIcEEE6sentrycvbB7v160006Ev, symObjAddr: 0x3AC0C, symBinAddr: 0x10003D320, symSize: 0xE8 }
  - { offsetInCU: 0x170E9, offset: 0x170E9, size: 0x8, addend: 0x0, symName: __ZNSt3__112basic_stringIcNS_11char_traitsIcEENS_9allocatorIcEEE5clearB7v160006Ev, symObjAddr: 0x3ACF4, symBinAddr: 0x10003D408, symSize: 0x3B4 }
  - { offsetInCU: 0x17111, offset: 0x17111, size: 0x8, addend: 0x0, symName: __ZNKSt3__112basic_stringIcNS_11char_traitsIcEENS_9allocatorIcEEE8max_sizeB7v160006Ev, symObjAddr: 0x3B0A8, symBinAddr: 0x10003D7BC, symSize: 0x1B8 }
  - { offsetInCU: 0x17163, offset: 0x17163, size: 0x8, addend: 0x0, symName: __ZNSt3__115basic_streambufIcNS_11char_traitsIcEEE5sgetcB7v160006Ev, symObjAddr: 0x3B260, symBinAddr: 0x10003D974, symSize: 0x418 }
  - { offsetInCU: 0x17188, offset: 0x17188, size: 0x8, addend: 0x0, symName: __ZNSt3__111char_traitsIcE12to_char_typeEi, symObjAddr: 0x3B678, symBinAddr: 0x10003DD8C, symSize: 0x18 }
  - { offsetInCU: 0x171AB, offset: 0x171AB, size: 0x8, addend: 0x0, symName: __ZNKSt3__15ctypeIcE2isB7v160006Ejc, symObjAddr: 0x3B690, symBinAddr: 0x10003DDA4, symSize: 0x314 }
  - { offsetInCU: 0x171EE, offset: 0x171EE, size: 0x8, addend: 0x0, symName: __ZNSt3__115basic_streambufIcNS_11char_traitsIcEEE6sbumpcB7v160006Ev, symObjAddr: 0x3B9A4, symBinAddr: 0x10003E0B8, symSize: 0x4D8 }
  - { offsetInCU: 0x17213, offset: 0x17213, size: 0x8, addend: 0x0, symName: __ZNSt3__18ios_base18__setstate_nothrowB7v160006Ej, symObjAddr: 0x3BE7C, symBinAddr: 0x10003E590, symSize: 0x320 }
  - { offsetInCU: 0x17247, offset: 0x17247, size: 0x8, addend: 0x0, symName: __ZNKSt3__19basic_iosIcNS_11char_traitsIcEEE10exceptionsB7v160006Ev, symObjAddr: 0x3C19C, symBinAddr: 0x10003E8B0, symSize: 0x120 }
  - { offsetInCU: 0x1726C, offset: 0x1726C, size: 0x8, addend: 0x0, symName: __ZNSt3__111char_traitsIcE6assignERcRKc, symObjAddr: 0x3C2CC, symBinAddr: 0x10003E9E0, symSize: 0xF4 }
  - { offsetInCU: 0x1729D, offset: 0x1729D, size: 0x8, addend: 0x0, symName: __ZNSt3__112basic_stringIcNS_11char_traitsIcEENS_9allocatorIcEEE18__get_long_pointerB7v160006Ev, symObjAddr: 0x3C3C0, symBinAddr: 0x10003EAD4, symSize: 0x208 }
  - { offsetInCU: 0x172C2, offset: 0x172C2, size: 0x8, addend: 0x0, symName: __ZNSt3__112basic_stringIcNS_11char_traitsIcEENS_9allocatorIcEEE15__set_long_sizeB7v160006Em, symObjAddr: 0x3C5C8, symBinAddr: 0x10003ECDC, symSize: 0x220 }
  - { offsetInCU: 0x172F6, offset: 0x172F6, size: 0x8, addend: 0x0, symName: __ZNSt3__112basic_stringIcNS_11char_traitsIcEENS_9allocatorIcEEE19__get_short_pointerB7v160006Ev, symObjAddr: 0x3C7E8, symBinAddr: 0x10003EEFC, symSize: 0x1CC }
  - { offsetInCU: 0x1731B, offset: 0x1731B, size: 0x8, addend: 0x0, symName: __ZNSt3__112basic_stringIcNS_11char_traitsIcEENS_9allocatorIcEEE16__set_short_sizeB7v160006Em, symObjAddr: 0x3C9B4, symBinAddr: 0x10003F0C8, symSize: 0x394 }
  - { offsetInCU: 0x1734F, offset: 0x1734F, size: 0x8, addend: 0x0, symName: __ZNSt3__114pointer_traitsIPcE10pointer_toB7v160006ERc, symObjAddr: 0x3CD48, symBinAddr: 0x10003F45C, symSize: 0x14 }
  - { offsetInCU: 0x1737C, offset: 0x1737C, size: 0x8, addend: 0x0, symName: __ZNSt3__116allocator_traitsINS_9allocatorIcEEE8max_sizeB7v160006IS2_vEEmRKS2_, symObjAddr: 0x3CD5C, symBinAddr: 0x10003F470, symSize: 0x24 }
  - { offsetInCU: 0x173AA, offset: 0x173AA, size: 0x8, addend: 0x0, symName: __ZNKSt3__112basic_stringIcNS_11char_traitsIcEENS_9allocatorIcEEE7__allocB7v160006Ev, symObjAddr: 0x3CD80, symBinAddr: 0x10003F494, symSize: 0xDC }
  - { offsetInCU: 0x173CF, offset: 0x173CF, size: 0x8, addend: 0x0, symName: __ZNSt3__114numeric_limitsImE3maxB7v160006Ev, symObjAddr: 0x3CE5C, symBinAddr: 0x10003F570, symSize: 0x14 }
  - { offsetInCU: 0x173E3, offset: 0x173E3, size: 0x8, addend: 0x0, symName: __ZNKSt3__19allocatorIcE8max_sizeB7v160006Ev, symObjAddr: 0x3CE70, symBinAddr: 0x10003F584, symSize: 0x4C }
  - { offsetInCU: 0x17408, offset: 0x17408, size: 0x8, addend: 0x0, symName: __ZNKSt3__117__compressed_pairINS_12basic_stringIcNS_11char_traitsIcEENS_9allocatorIcEEE5__repES5_E6secondB7v160006Ev, symObjAddr: 0x3CEBC, symBinAddr: 0x10003F5D0, symSize: 0x108 }
  - { offsetInCU: 0x1742D, offset: 0x1742D, size: 0x8, addend: 0x0, symName: __ZNKSt3__122__compressed_pair_elemINS_9allocatorIcEELi1ELb1EE5__getB7v160006Ev, symObjAddr: 0x3CFC4, symBinAddr: 0x10003F6D8, symSize: 0x74 }
  - { offsetInCU: 0x17452, offset: 0x17452, size: 0x8, addend: 0x0, symName: __ZNSt3__123__libcpp_numeric_limitsImLb1EE3maxB7v160006Ev, symObjAddr: 0x3D038, symBinAddr: 0x10003F74C, symSize: 0x8 }
  - { offsetInCU: 0x17466, offset: 0x17466, size: 0x8, addend: 0x0, symName: __ZNSt3__111char_traitsIcE11to_int_typeEc, symObjAddr: 0x3D040, symBinAddr: 0x10003F754, symSize: 0x14 }
  - { offsetInCU: 0x17488, offset: 0x17488, size: 0x8, addend: 0x0, symName: __Z7isasciii, symObjAddr: 0x3D054, symBinAddr: 0x10003F768, symSize: 0x24 }
  - { offsetInCU: 0x174B4, offset: 0x174B4, size: 0x8, addend: 0x0, symName: __ZNKSt3__18ios_base10exceptionsB7v160006Ev, symObjAddr: 0x3D078, symBinAddr: 0x10003F78C, symSize: 0x160 }
  - { offsetInCU: 0x174DA, offset: 0x174DA, size: 0x8, addend: 0x0, symName: __ZNSt3__18ios_base9precisionB7v160006El, symObjAddr: 0x3D1D8, symBinAddr: 0x10003F8EC, symSize: 0x1F8 }
...
